
rfid_hacker.elf:     file format elf32-littlearm

Sections:
Idx Name          Size      VMA       LMA       File off  Algn
  0 .isr_vector   0000010c  08000000  08000000  00010000  2**0
                  CONTENTS, ALLOC, LOAD, READONLY, DATA
  1 .text         000018d4  0800010c  0800010c  0001010c  2**2
                  CONTENTS, ALLOC, LOAD, READONLY, CODE
  2 .rodata       00000024  080019e0  080019e0  000119e0  2**2
                  CONTENTS, ALLOC, LOAD, READONLY, DATA
  3 .ARM.extab    00000000  08001a04  08001a04  0002000c  2**0
                  CONTENTS
  4 .ARM          00000000  08001a04  08001a04  0002000c  2**0
                  CONTENTS
  5 .preinit_array 00000000  08001a04  08001a04  0002000c  2**0
                  CONTENTS, ALLOC, LOAD, DATA
  6 .init_array   00000004  08001a04  08001a04  00011a04  2**2
                  CONTENTS, ALLOC, LOAD, DATA
  7 .fini_array   00000004  08001a08  08001a08  00011a08  2**2
                  CONTENTS, ALLOC, LOAD, DATA
  8 .data         0000000c  20000000  08001a0c  00020000  2**2
                  CONTENTS, ALLOC, LOAD, DATA
  9 .bss          00000068  2000000c  08001a18  0002000c  2**2
                  ALLOC
 10 ._user_heap_stack 00000604  20000074  08001a18  00020074  2**0
                  ALLOC
 11 .ARM.attributes 00000029  00000000  00000000  0002000c  2**0
                  CONTENTS, READONLY
 12 .debug_info   00008253  00000000  00000000  00020035  2**0
                  CONTENTS, READONLY, DEBUGGING, OCTETS
 13 .debug_abbrev 0000159e  00000000  00000000  00028288  2**0
                  CONTENTS, READONLY, DEBUGGING, OCTETS
 14 .debug_aranges 00000970  00000000  00000000  00029828  2**3
                  CONTENTS, READONLY, DEBUGGING, OCTETS
 15 .debug_ranges 000008b8  00000000  00000000  0002a198  2**3
                  CONTENTS, READONLY, DEBUGGING, OCTETS
 16 .debug_macro  00016782  00000000  00000000  0002aa50  2**0
                  CONTENTS, READONLY, DEBUGGING, OCTETS
 17 .debug_line   00009aef  00000000  00000000  000411d2  2**0
                  CONTENTS, READONLY, DEBUGGING, OCTETS
 18 .debug_str    0008407e  00000000  00000000  0004acc1  2**0
                  CONTENTS, READONLY, DEBUGGING, OCTETS
 19 .comment      00000050  00000000  00000000  000ced3f  2**0
                  CONTENTS, READONLY
 20 .debug_frame  00002690  00000000  00000000  000ced90  2**2
                  CONTENTS, READONLY, DEBUGGING, OCTETS

Disassembly of section .text:

0800010c <__do_global_dtors_aux>:
 800010c:	b510      	push	{r4, lr}
 800010e:	4c05      	ldr	r4, [pc, #20]	; (8000124 <__do_global_dtors_aux+0x18>)
 8000110:	7823      	ldrb	r3, [r4, #0]
 8000112:	b933      	cbnz	r3, 8000122 <__do_global_dtors_aux+0x16>
 8000114:	4b04      	ldr	r3, [pc, #16]	; (8000128 <__do_global_dtors_aux+0x1c>)
 8000116:	b113      	cbz	r3, 800011e <__do_global_dtors_aux+0x12>
 8000118:	4804      	ldr	r0, [pc, #16]	; (800012c <__do_global_dtors_aux+0x20>)
 800011a:	f3af 8000 	nop.w
 800011e:	2301      	movs	r3, #1
 8000120:	7023      	strb	r3, [r4, #0]
 8000122:	bd10      	pop	{r4, pc}
 8000124:	2000000c 	.word	0x2000000c
 8000128:	00000000 	.word	0x00000000
 800012c:	080019c8 	.word	0x080019c8

08000130 <frame_dummy>:
 8000130:	b508      	push	{r3, lr}
 8000132:	4b03      	ldr	r3, [pc, #12]	; (8000140 <frame_dummy+0x10>)
 8000134:	b11b      	cbz	r3, 800013e <frame_dummy+0xe>
 8000136:	4903      	ldr	r1, [pc, #12]	; (8000144 <frame_dummy+0x14>)
 8000138:	4803      	ldr	r0, [pc, #12]	; (8000148 <frame_dummy+0x18>)
 800013a:	f3af 8000 	nop.w
 800013e:	bd08      	pop	{r3, pc}
 8000140:	00000000 	.word	0x00000000
 8000144:	20000010 	.word	0x20000010
 8000148:	080019c8 	.word	0x080019c8

0800014c <main>:
/**
  * @brief  The application entry point.
  * @retval int
  */
int main(void)
{
 800014c:	b580      	push	{r7, lr}
 800014e:	b082      	sub	sp, #8
 8000150:	af00      	add	r7, sp, #0
  /* USER CODE END 1 */

  /* MCU Configuration--------------------------------------------------------*/

  /* Reset of all peripherals, Initializes the Flash interface and the Systick. */
  HAL_Init();
 8000152:	f000 fa57 	bl	8000604 <HAL_Init>
  /* USER CODE BEGIN Init */

  /* USER CODE END Init */

  /* Configure the system clock */
  SystemClock_Config();
 8000156:	f000 f81d 	bl	8000194 <SystemClock_Config>
  /* USER CODE BEGIN SysInit */

  /* USER CODE END SysInit */

  /* Initialize all configured peripherals */
  MX_GPIO_Init();
 800015a:	f000 f8b1 	bl	80002c0 <MX_GPIO_Init>
  MX_TIM1_Init();
 800015e:	f000 f85f 	bl	8000220 <MX_TIM1_Init>
  /* USER CODE BEGIN 2 */
  HAL_TIM_Base_Start(&htim1);
 8000162:	480a      	ldr	r0, [pc, #40]	; (800018c <main+0x40>)
 8000164:	f001 f99c 	bl	80014a0 <HAL_TIM_Base_Start>
  uint32_t number = 150;
 8000168:	2396      	movs	r3, #150	; 0x96
 800016a:	607b      	str	r3, [r7, #4]

  /* Infinite loop */
  /* USER CODE BEGIN WHILE */
  while (1)
  {
	  send_rfid_as_uint32(5376+number, 24);
 800016c:	687b      	ldr	r3, [r7, #4]
 800016e:	f503 53a8 	add.w	r3, r3, #5376	; 0x1500
 8000172:	2118      	movs	r1, #24
 8000174:	4618      	mov	r0, r3
 8000176:	f000 f973 	bl	8000460 <send_rfid_as_uint32>
	  HAL_GPIO_TogglePin(LED_GPIO_Port, LED_Pin);
 800017a:	f44f 5100 	mov.w	r1, #8192	; 0x2000
 800017e:	4804      	ldr	r0, [pc, #16]	; (8000190 <main+0x44>)
 8000180:	f000 fd46 	bl	8000c10 <HAL_GPIO_TogglePin>
	  HAL_Delay(250);
 8000184:	20fa      	movs	r0, #250	; 0xfa
 8000186:	f000 fa9f 	bl	80006c8 <HAL_Delay>
	  send_rfid_as_uint32(5376+number, 24);
 800018a:	e7ef      	b.n	800016c <main+0x20>
 800018c:	20000028 	.word	0x20000028
 8000190:	40011000 	.word	0x40011000

08000194 <SystemClock_Config>:
/**
  * @brief System Clock Configuration
  * @retval None
  */
void SystemClock_Config(void)
{
 8000194:	b580      	push	{r7, lr}
 8000196:	b090      	sub	sp, #64	; 0x40
 8000198:	af00      	add	r7, sp, #0
  RCC_OscInitTypeDef RCC_OscInitStruct = {0};
 800019a:	f107 0318 	add.w	r3, r7, #24
 800019e:	2228      	movs	r2, #40	; 0x28
 80001a0:	2100      	movs	r1, #0
 80001a2:	4618      	mov	r0, r3
 80001a4:	f001 fc08 	bl	80019b8 <memset>
  RCC_ClkInitTypeDef RCC_ClkInitStruct = {0};
 80001a8:	1d3b      	adds	r3, r7, #4
 80001aa:	2200      	movs	r2, #0
 80001ac:	601a      	str	r2, [r3, #0]
 80001ae:	605a      	str	r2, [r3, #4]
 80001b0:	609a      	str	r2, [r3, #8]
 80001b2:	60da      	str	r2, [r3, #12]
 80001b4:	611a      	str	r2, [r3, #16]

  /** Initializes the RCC Oscillators according to the specified parameters
  * in the RCC_OscInitTypeDef structure.
  */
  RCC_OscInitStruct.OscillatorType = RCC_OSCILLATORTYPE_HSE;
 80001b6:	2301      	movs	r3, #1
 80001b8:	61bb      	str	r3, [r7, #24]
  RCC_OscInitStruct.HSEState = RCC_HSE_ON;
 80001ba:	f44f 3380 	mov.w	r3, #65536	; 0x10000
 80001be:	61fb      	str	r3, [r7, #28]
  RCC_OscInitStruct.HSEPredivValue = RCC_HSE_PREDIV_DIV1;
 80001c0:	2300      	movs	r3, #0
 80001c2:	623b      	str	r3, [r7, #32]
  RCC_OscInitStruct.HSIState = RCC_HSI_ON;
 80001c4:	2301      	movs	r3, #1
 80001c6:	62bb      	str	r3, [r7, #40]	; 0x28
  RCC_OscInitStruct.PLL.PLLState = RCC_PLL_ON;
 80001c8:	2302      	movs	r3, #2
 80001ca:	637b      	str	r3, [r7, #52]	; 0x34
  RCC_OscInitStruct.PLL.PLLSource = RCC_PLLSOURCE_HSE;
 80001cc:	f44f 3380 	mov.w	r3, #65536	; 0x10000
 80001d0:	63bb      	str	r3, [r7, #56]	; 0x38
  RCC_OscInitStruct.PLL.PLLMUL = RCC_PLL_MUL9;
 80001d2:	f44f 13e0 	mov.w	r3, #1835008	; 0x1c0000
 80001d6:	63fb      	str	r3, [r7, #60]	; 0x3c
  if (HAL_RCC_OscConfig(&RCC_OscInitStruct) != HAL_OK)
 80001d8:	f107 0318 	add.w	r3, r7, #24
 80001dc:	4618      	mov	r0, r3
 80001de:	f000 fd31 	bl	8000c44 <HAL_RCC_OscConfig>
 80001e2:	4603      	mov	r3, r0
 80001e4:	2b00      	cmp	r3, #0
 80001e6:	d001      	beq.n	80001ec <SystemClock_Config+0x58>
  {
    Error_Handler();
 80001e8:	f000 f8d6 	bl	8000398 <Error_Handler>
  }

  /** Initializes the CPU, AHB and APB buses clocks
  */
  RCC_ClkInitStruct.ClockType = RCC_CLOCKTYPE_HCLK|RCC_CLOCKTYPE_SYSCLK
 80001ec:	230f      	movs	r3, #15
 80001ee:	607b      	str	r3, [r7, #4]
                              |RCC_CLOCKTYPE_PCLK1|RCC_CLOCKTYPE_PCLK2;
  RCC_ClkInitStruct.SYSCLKSource = RCC_SYSCLKSOURCE_PLLCLK;
 80001f0:	2302      	movs	r3, #2
 80001f2:	60bb      	str	r3, [r7, #8]
  RCC_ClkInitStruct.AHBCLKDivider = RCC_SYSCLK_DIV1;
 80001f4:	2300      	movs	r3, #0
 80001f6:	60fb      	str	r3, [r7, #12]
  RCC_ClkInitStruct.APB1CLKDivider = RCC_HCLK_DIV2;
 80001f8:	f44f 6380 	mov.w	r3, #1024	; 0x400
 80001fc:	613b      	str	r3, [r7, #16]
  RCC_ClkInitStruct.APB2CLKDivider = RCC_HCLK_DIV1;
 80001fe:	2300      	movs	r3, #0
 8000200:	617b      	str	r3, [r7, #20]

  if (HAL_RCC_ClockConfig(&RCC_ClkInitStruct, FLASH_LATENCY_2) != HAL_OK)
 8000202:	1d3b      	adds	r3, r7, #4
 8000204:	2102      	movs	r1, #2
 8000206:	4618      	mov	r0, r3
 8000208:	f000 ff9e 	bl	8001148 <HAL_RCC_ClockConfig>
 800020c:	4603      	mov	r3, r0
 800020e:	2b00      	cmp	r3, #0
 8000210:	d001      	beq.n	8000216 <SystemClock_Config+0x82>
  {
    Error_Handler();
 8000212:	f000 f8c1 	bl	8000398 <Error_Handler>
  }
}
 8000216:	bf00      	nop
 8000218:	3740      	adds	r7, #64	; 0x40
 800021a:	46bd      	mov	sp, r7
 800021c:	bd80      	pop	{r7, pc}
	...

08000220 <MX_TIM1_Init>:
  * @brief TIM1 Initialization Function
  * @param None
  * @retval None
  */
static void MX_TIM1_Init(void)
{
 8000220:	b580      	push	{r7, lr}
 8000222:	b086      	sub	sp, #24
 8000224:	af00      	add	r7, sp, #0

  /* USER CODE BEGIN TIM1_Init 0 */

  /* USER CODE END TIM1_Init 0 */

  TIM_ClockConfigTypeDef sClockSourceConfig = {0};
 8000226:	f107 0308 	add.w	r3, r7, #8
 800022a:	2200      	movs	r2, #0
 800022c:	601a      	str	r2, [r3, #0]
 800022e:	605a      	str	r2, [r3, #4]
 8000230:	609a      	str	r2, [r3, #8]
 8000232:	60da      	str	r2, [r3, #12]
  TIM_MasterConfigTypeDef sMasterConfig = {0};
 8000234:	463b      	mov	r3, r7
 8000236:	2200      	movs	r2, #0
 8000238:	601a      	str	r2, [r3, #0]
 800023a:	605a      	str	r2, [r3, #4]

  /* USER CODE BEGIN TIM1_Init 1 */

  /* USER CODE END TIM1_Init 1 */
  htim1.Instance = TIM1;
 800023c:	4b1e      	ldr	r3, [pc, #120]	; (80002b8 <MX_TIM1_Init+0x98>)
 800023e:	4a1f      	ldr	r2, [pc, #124]	; (80002bc <MX_TIM1_Init+0x9c>)
 8000240:	601a      	str	r2, [r3, #0]
  htim1.Init.Prescaler = 71;
 8000242:	4b1d      	ldr	r3, [pc, #116]	; (80002b8 <MX_TIM1_Init+0x98>)
 8000244:	2247      	movs	r2, #71	; 0x47
 8000246:	605a      	str	r2, [r3, #4]
  htim1.Init.CounterMode = TIM_COUNTERMODE_UP;
 8000248:	4b1b      	ldr	r3, [pc, #108]	; (80002b8 <MX_TIM1_Init+0x98>)
 800024a:	2200      	movs	r2, #0
 800024c:	609a      	str	r2, [r3, #8]
  htim1.Init.Period = 0xFFFE;
 800024e:	4b1a      	ldr	r3, [pc, #104]	; (80002b8 <MX_TIM1_Init+0x98>)
 8000250:	f64f 72fe 	movw	r2, #65534	; 0xfffe
 8000254:	60da      	str	r2, [r3, #12]
  htim1.Init.ClockDivision = TIM_CLOCKDIVISION_DIV1;
 8000256:	4b18      	ldr	r3, [pc, #96]	; (80002b8 <MX_TIM1_Init+0x98>)
 8000258:	2200      	movs	r2, #0
 800025a:	611a      	str	r2, [r3, #16]
  htim1.Init.RepetitionCounter = 0;
 800025c:	4b16      	ldr	r3, [pc, #88]	; (80002b8 <MX_TIM1_Init+0x98>)
 800025e:	2200      	movs	r2, #0
 8000260:	615a      	str	r2, [r3, #20]
  htim1.Init.AutoReloadPreload = TIM_AUTORELOAD_PRELOAD_DISABLE;
 8000262:	4b15      	ldr	r3, [pc, #84]	; (80002b8 <MX_TIM1_Init+0x98>)
 8000264:	2200      	movs	r2, #0
 8000266:	619a      	str	r2, [r3, #24]
  if (HAL_TIM_Base_Init(&htim1) != HAL_OK)
 8000268:	4813      	ldr	r0, [pc, #76]	; (80002b8 <MX_TIM1_Init+0x98>)
 800026a:	f001 f8c9 	bl	8001400 <HAL_TIM_Base_Init>
 800026e:	4603      	mov	r3, r0
 8000270:	2b00      	cmp	r3, #0
 8000272:	d001      	beq.n	8000278 <MX_TIM1_Init+0x58>
  {
    Error_Handler();
 8000274:	f000 f890 	bl	8000398 <Error_Handler>
  }
  sClockSourceConfig.ClockSource = TIM_CLOCKSOURCE_INTERNAL;
 8000278:	f44f 5380 	mov.w	r3, #4096	; 0x1000
 800027c:	60bb      	str	r3, [r7, #8]
  if (HAL_TIM_ConfigClockSource(&htim1, &sClockSourceConfig) != HAL_OK)
 800027e:	f107 0308 	add.w	r3, r7, #8
 8000282:	4619      	mov	r1, r3
 8000284:	480c      	ldr	r0, [pc, #48]	; (80002b8 <MX_TIM1_Init+0x98>)
 8000286:	f001 f955 	bl	8001534 <HAL_TIM_ConfigClockSource>
 800028a:	4603      	mov	r3, r0
 800028c:	2b00      	cmp	r3, #0
 800028e:	d001      	beq.n	8000294 <MX_TIM1_Init+0x74>
  {
    Error_Handler();
 8000290:	f000 f882 	bl	8000398 <Error_Handler>
  }
  sMasterConfig.MasterOutputTrigger = TIM_TRGO_RESET;
 8000294:	2300      	movs	r3, #0
 8000296:	603b      	str	r3, [r7, #0]
  sMasterConfig.MasterSlaveMode = TIM_MASTERSLAVEMODE_DISABLE;
 8000298:	2300      	movs	r3, #0
 800029a:	607b      	str	r3, [r7, #4]
  if (HAL_TIMEx_MasterConfigSynchronization(&htim1, &sMasterConfig) != HAL_OK)
 800029c:	463b      	mov	r3, r7
 800029e:	4619      	mov	r1, r3
 80002a0:	4805      	ldr	r0, [pc, #20]	; (80002b8 <MX_TIM1_Init+0x98>)
 80002a2:	f001 fb07 	bl	80018b4 <HAL_TIMEx_MasterConfigSynchronization>
 80002a6:	4603      	mov	r3, r0
 80002a8:	2b00      	cmp	r3, #0
 80002aa:	d001      	beq.n	80002b0 <MX_TIM1_Init+0x90>
  {
    Error_Handler();
 80002ac:	f000 f874 	bl	8000398 <Error_Handler>
  }
  /* USER CODE BEGIN TIM1_Init 2 */

  /* USER CODE END TIM1_Init 2 */

}
 80002b0:	bf00      	nop
 80002b2:	3718      	adds	r7, #24
 80002b4:	46bd      	mov	sp, r7
 80002b6:	bd80      	pop	{r7, pc}
 80002b8:	20000028 	.word	0x20000028
 80002bc:	40012c00 	.word	0x40012c00

080002c0 <MX_GPIO_Init>:
  * @brief GPIO Initialization Function
  * @param None
  * @retval None
  */
static void MX_GPIO_Init(void)
{
 80002c0:	b580      	push	{r7, lr}
 80002c2:	b088      	sub	sp, #32
 80002c4:	af00      	add	r7, sp, #0
  GPIO_InitTypeDef GPIO_InitStruct = {0};
 80002c6:	f107 0310 	add.w	r3, r7, #16
 80002ca:	2200      	movs	r2, #0
 80002cc:	601a      	str	r2, [r3, #0]
 80002ce:	605a      	str	r2, [r3, #4]
 80002d0:	609a      	str	r2, [r3, #8]
 80002d2:	60da      	str	r2, [r3, #12]
/* USER CODE BEGIN MX_GPIO_Init_1 */
/* USER CODE END MX_GPIO_Init_1 */

  /* GPIO Ports Clock Enable */
  __HAL_RCC_GPIOC_CLK_ENABLE();
 80002d4:	4b2d      	ldr	r3, [pc, #180]	; (800038c <MX_GPIO_Init+0xcc>)
 80002d6:	699b      	ldr	r3, [r3, #24]
 80002d8:	4a2c      	ldr	r2, [pc, #176]	; (800038c <MX_GPIO_Init+0xcc>)
 80002da:	f043 0310 	orr.w	r3, r3, #16
 80002de:	6193      	str	r3, [r2, #24]
 80002e0:	4b2a      	ldr	r3, [pc, #168]	; (800038c <MX_GPIO_Init+0xcc>)
 80002e2:	699b      	ldr	r3, [r3, #24]
 80002e4:	f003 0310 	and.w	r3, r3, #16
 80002e8:	60fb      	str	r3, [r7, #12]
 80002ea:	68fb      	ldr	r3, [r7, #12]
  __HAL_RCC_GPIOD_CLK_ENABLE();
 80002ec:	4b27      	ldr	r3, [pc, #156]	; (800038c <MX_GPIO_Init+0xcc>)
 80002ee:	699b      	ldr	r3, [r3, #24]
 80002f0:	4a26      	ldr	r2, [pc, #152]	; (800038c <MX_GPIO_Init+0xcc>)
 80002f2:	f043 0320 	orr.w	r3, r3, #32
 80002f6:	6193      	str	r3, [r2, #24]
 80002f8:	4b24      	ldr	r3, [pc, #144]	; (800038c <MX_GPIO_Init+0xcc>)
 80002fa:	699b      	ldr	r3, [r3, #24]
 80002fc:	f003 0320 	and.w	r3, r3, #32
 8000300:	60bb      	str	r3, [r7, #8]
 8000302:	68bb      	ldr	r3, [r7, #8]
  __HAL_RCC_GPIOA_CLK_ENABLE();
 8000304:	4b21      	ldr	r3, [pc, #132]	; (800038c <MX_GPIO_Init+0xcc>)
 8000306:	699b      	ldr	r3, [r3, #24]
 8000308:	4a20      	ldr	r2, [pc, #128]	; (800038c <MX_GPIO_Init+0xcc>)
 800030a:	f043 0304 	orr.w	r3, r3, #4
 800030e:	6193      	str	r3, [r2, #24]
 8000310:	4b1e      	ldr	r3, [pc, #120]	; (800038c <MX_GPIO_Init+0xcc>)
 8000312:	699b      	ldr	r3, [r3, #24]
 8000314:	f003 0304 	and.w	r3, r3, #4
 8000318:	607b      	str	r3, [r7, #4]
 800031a:	687b      	ldr	r3, [r7, #4]
  __HAL_RCC_GPIOB_CLK_ENABLE();
 800031c:	4b1b      	ldr	r3, [pc, #108]	; (800038c <MX_GPIO_Init+0xcc>)
 800031e:	699b      	ldr	r3, [r3, #24]
 8000320:	4a1a      	ldr	r2, [pc, #104]	; (800038c <MX_GPIO_Init+0xcc>)
 8000322:	f043 0308 	orr.w	r3, r3, #8
 8000326:	6193      	str	r3, [r2, #24]
 8000328:	4b18      	ldr	r3, [pc, #96]	; (800038c <MX_GPIO_Init+0xcc>)
 800032a:	699b      	ldr	r3, [r3, #24]
 800032c:	f003 0308 	and.w	r3, r3, #8
 8000330:	603b      	str	r3, [r7, #0]
 8000332:	683b      	ldr	r3, [r7, #0]

  /*Configure GPIO pin Output Level */
  HAL_GPIO_WritePin(LED_GPIO_Port, LED_Pin, GPIO_PIN_RESET);
 8000334:	2200      	movs	r2, #0
 8000336:	f44f 5100 	mov.w	r1, #8192	; 0x2000
 800033a:	4815      	ldr	r0, [pc, #84]	; (8000390 <MX_GPIO_Init+0xd0>)
 800033c:	f000 fc50 	bl	8000be0 <HAL_GPIO_WritePin>

  /*Configure GPIO pin Output Level */
  HAL_GPIO_WritePin(rf_tx_GPIO_Port, rf_tx_Pin, GPIO_PIN_RESET);
 8000340:	2200      	movs	r2, #0
 8000342:	2180      	movs	r1, #128	; 0x80
 8000344:	4813      	ldr	r0, [pc, #76]	; (8000394 <MX_GPIO_Init+0xd4>)
 8000346:	f000 fc4b 	bl	8000be0 <HAL_GPIO_WritePin>

  /*Configure GPIO pin : LED_Pin */
  GPIO_InitStruct.Pin = LED_Pin;
 800034a:	f44f 5300 	mov.w	r3, #8192	; 0x2000
 800034e:	613b      	str	r3, [r7, #16]
  GPIO_InitStruct.Mode = GPIO_MODE_OUTPUT_PP;
 8000350:	2301      	movs	r3, #1
 8000352:	617b      	str	r3, [r7, #20]
  GPIO_InitStruct.Pull = GPIO_NOPULL;
 8000354:	2300      	movs	r3, #0
 8000356:	61bb      	str	r3, [r7, #24]
  GPIO_InitStruct.Speed = GPIO_SPEED_FREQ_LOW;
 8000358:	2302      	movs	r3, #2
 800035a:	61fb      	str	r3, [r7, #28]
  HAL_GPIO_Init(LED_GPIO_Port, &GPIO_InitStruct);
 800035c:	f107 0310 	add.w	r3, r7, #16
 8000360:	4619      	mov	r1, r3
 8000362:	480b      	ldr	r0, [pc, #44]	; (8000390 <MX_GPIO_Init+0xd0>)
 8000364:	f000 fab8 	bl	80008d8 <HAL_GPIO_Init>

  /*Configure GPIO pin : rf_tx_Pin */
  GPIO_InitStruct.Pin = rf_tx_Pin;
 8000368:	2380      	movs	r3, #128	; 0x80
 800036a:	613b      	str	r3, [r7, #16]
  GPIO_InitStruct.Mode = GPIO_MODE_OUTPUT_PP;
 800036c:	2301      	movs	r3, #1
 800036e:	617b      	str	r3, [r7, #20]
  GPIO_InitStruct.Pull = GPIO_NOPULL;
 8000370:	2300      	movs	r3, #0
 8000372:	61bb      	str	r3, [r7, #24]
  GPIO_InitStruct.Speed = GPIO_SPEED_FREQ_HIGH;
 8000374:	2303      	movs	r3, #3
 8000376:	61fb      	str	r3, [r7, #28]
  HAL_GPIO_Init(rf_tx_GPIO_Port, &GPIO_InitStruct);
 8000378:	f107 0310 	add.w	r3, r7, #16
 800037c:	4619      	mov	r1, r3
 800037e:	4805      	ldr	r0, [pc, #20]	; (8000394 <MX_GPIO_Init+0xd4>)
 8000380:	f000 faaa 	bl	80008d8 <HAL_GPIO_Init>

/* USER CODE BEGIN MX_GPIO_Init_2 */
/* USER CODE END MX_GPIO_Init_2 */
}
 8000384:	bf00      	nop
 8000386:	3720      	adds	r7, #32
 8000388:	46bd      	mov	sp, r7
 800038a:	bd80      	pop	{r7, pc}
 800038c:	40021000 	.word	0x40021000
 8000390:	40011000 	.word	0x40011000
 8000394:	40010c00 	.word	0x40010c00

08000398 <Error_Handler>:
/**
  * @brief  This function is executed in case of error occurrence.
  * @retval None
  */
void Error_Handler(void)
{
 8000398:	b480      	push	{r7}
 800039a:	af00      	add	r7, sp, #0
  \details Disables IRQ interrupts by setting the I-bit in the CPSR.
           Can only be executed in Privileged modes.
 */
__STATIC_FORCEINLINE void __disable_irq(void)
{
  __ASM volatile ("cpsid i" : : : "memory");
 800039c:	b672      	cpsid	i
}
 800039e:	bf00      	nop
  /* USER CODE BEGIN Error_Handler_Debug */
  /* User can add his own implementation to report the HAL error return state */
  __disable_irq();
  while (1)
 80003a0:	e7fe      	b.n	80003a0 <Error_Handler+0x8>
	...

080003a4 <delay_us>:
#define PULSE_LENGTH 350
extern TIM_HandleTypeDef htim1;

static const char* data = "000000100001010100111111";
static void delay_us (uint16_t us)
{
 80003a4:	b480      	push	{r7}
 80003a6:	b083      	sub	sp, #12
 80003a8:	af00      	add	r7, sp, #0
 80003aa:	4603      	mov	r3, r0
 80003ac:	80fb      	strh	r3, [r7, #6]
	__HAL_TIM_SET_COUNTER(&htim1,0);  // set the counter value a 0
 80003ae:	4b0a      	ldr	r3, [pc, #40]	; (80003d8 <delay_us+0x34>)
 80003b0:	681b      	ldr	r3, [r3, #0]
 80003b2:	2200      	movs	r2, #0
 80003b4:	625a      	str	r2, [r3, #36]	; 0x24
	while (__HAL_TIM_GET_COUNTER(&htim1) < (us*PULSE_LENGTH));  // wait for the counter to reach the us input in the parameter
 80003b6:	bf00      	nop
 80003b8:	4b07      	ldr	r3, [pc, #28]	; (80003d8 <delay_us+0x34>)
 80003ba:	681b      	ldr	r3, [r3, #0]
 80003bc:	6a5b      	ldr	r3, [r3, #36]	; 0x24
 80003be:	88fa      	ldrh	r2, [r7, #6]
 80003c0:	f44f 71af 	mov.w	r1, #350	; 0x15e
 80003c4:	fb01 f202 	mul.w	r2, r1, r2
 80003c8:	4293      	cmp	r3, r2
 80003ca:	d3f5      	bcc.n	80003b8 <delay_us+0x14>
}
 80003cc:	bf00      	nop
 80003ce:	bf00      	nop
 80003d0:	370c      	adds	r7, #12
 80003d2:	46bd      	mov	sp, r7
 80003d4:	bc80      	pop	{r7}
 80003d6:	4770      	bx	lr
 80003d8:	20000028 	.word	0x20000028

080003dc <preamble>:

static void preamble(void)
{
 80003dc:	b580      	push	{r7, lr}
 80003de:	af00      	add	r7, sp, #0
	HAL_GPIO_WritePin(rf_tx_GPIO_Port, rf_tx_Pin, 1);
 80003e0:	2201      	movs	r2, #1
 80003e2:	2180      	movs	r1, #128	; 0x80
 80003e4:	4807      	ldr	r0, [pc, #28]	; (8000404 <preamble+0x28>)
 80003e6:	f000 fbfb 	bl	8000be0 <HAL_GPIO_WritePin>
	delay_us(1);
 80003ea:	2001      	movs	r0, #1
 80003ec:	f7ff ffda 	bl	80003a4 <delay_us>
	HAL_GPIO_WritePin(rf_tx_GPIO_Port, rf_tx_Pin, 0);
 80003f0:	2200      	movs	r2, #0
 80003f2:	2180      	movs	r1, #128	; 0x80
 80003f4:	4803      	ldr	r0, [pc, #12]	; (8000404 <preamble+0x28>)
 80003f6:	f000 fbf3 	bl	8000be0 <HAL_GPIO_WritePin>
	delay_us(31);
 80003fa:	201f      	movs	r0, #31
 80003fc:	f7ff ffd2 	bl	80003a4 <delay_us>
}
 8000400:	bf00      	nop
 8000402:	bd80      	pop	{r7, pc}
 8000404:	40010c00 	.word	0x40010c00

08000408 <data_high>:
static void data_high(void)
{
 8000408:	b580      	push	{r7, lr}
 800040a:	af00      	add	r7, sp, #0
	HAL_GPIO_WritePin(rf_tx_GPIO_Port, rf_tx_Pin, 1);
 800040c:	2201      	movs	r2, #1
 800040e:	2180      	movs	r1, #128	; 0x80
 8000410:	4807      	ldr	r0, [pc, #28]	; (8000430 <data_high+0x28>)
 8000412:	f000 fbe5 	bl	8000be0 <HAL_GPIO_WritePin>
	delay_us(3);
 8000416:	2003      	movs	r0, #3
 8000418:	f7ff ffc4 	bl	80003a4 <delay_us>
	HAL_GPIO_WritePin(rf_tx_GPIO_Port, rf_tx_Pin, 0);
 800041c:	2200      	movs	r2, #0
 800041e:	2180      	movs	r1, #128	; 0x80
 8000420:	4803      	ldr	r0, [pc, #12]	; (8000430 <data_high+0x28>)
 8000422:	f000 fbdd 	bl	8000be0 <HAL_GPIO_WritePin>
	delay_us(1);
 8000426:	2001      	movs	r0, #1
 8000428:	f7ff ffbc 	bl	80003a4 <delay_us>
}
 800042c:	bf00      	nop
 800042e:	bd80      	pop	{r7, pc}
 8000430:	40010c00 	.word	0x40010c00

08000434 <data_low>:
static void data_low(void)
{
 8000434:	b580      	push	{r7, lr}
 8000436:	af00      	add	r7, sp, #0
	HAL_GPIO_WritePin(rf_tx_GPIO_Port, rf_tx_Pin, 1);
 8000438:	2201      	movs	r2, #1
 800043a:	2180      	movs	r1, #128	; 0x80
 800043c:	4807      	ldr	r0, [pc, #28]	; (800045c <data_low+0x28>)
 800043e:	f000 fbcf 	bl	8000be0 <HAL_GPIO_WritePin>
	delay_us(1);
 8000442:	2001      	movs	r0, #1
 8000444:	f7ff ffae 	bl	80003a4 <delay_us>
	HAL_GPIO_WritePin(rf_tx_GPIO_Port, rf_tx_Pin, 0);
 8000448:	2200      	movs	r2, #0
 800044a:	2180      	movs	r1, #128	; 0x80
 800044c:	4803      	ldr	r0, [pc, #12]	; (800045c <data_low+0x28>)
 800044e:	f000 fbc7 	bl	8000be0 <HAL_GPIO_WritePin>
	delay_us(3);
 8000452:	2003      	movs	r0, #3
 8000454:	f7ff ffa6 	bl	80003a4 <delay_us>
}
 8000458:	bf00      	nop
 800045a:	bd80      	pop	{r7, pc}
 800045c:	40010c00 	.word	0x40010c00

08000460 <send_rfid_as_uint32>:

		i++;
	}
}

void send_rfid_as_uint32(unsigned long code, unsigned int length) {
 8000460:	b580      	push	{r7, lr}
 8000462:	b084      	sub	sp, #16
 8000464:	af00      	add	r7, sp, #0
 8000466:	6078      	str	r0, [r7, #4]
 8000468:	6039      	str	r1, [r7, #0]
  for (int nRepeat = 0; nRepeat < 10; nRepeat++) {
 800046a:	2300      	movs	r3, #0
 800046c:	60fb      	str	r3, [r7, #12]
 800046e:	e01c      	b.n	80004aa <send_rfid_as_uint32+0x4a>
    for (int i = length-1; i >= 0; i--) {
 8000470:	683b      	ldr	r3, [r7, #0]
 8000472:	3b01      	subs	r3, #1
 8000474:	60bb      	str	r3, [r7, #8]
 8000476:	e010      	b.n	800049a <send_rfid_as_uint32+0x3a>
      if (code & (1L << i))
 8000478:	2201      	movs	r2, #1
 800047a:	68bb      	ldr	r3, [r7, #8]
 800047c:	fa02 f303 	lsl.w	r3, r2, r3
 8000480:	461a      	mov	r2, r3
 8000482:	687b      	ldr	r3, [r7, #4]
 8000484:	4013      	ands	r3, r2
 8000486:	2b00      	cmp	r3, #0
 8000488:	d002      	beq.n	8000490 <send_rfid_as_uint32+0x30>
        data_high();
 800048a:	f7ff ffbd 	bl	8000408 <data_high>
 800048e:	e001      	b.n	8000494 <send_rfid_as_uint32+0x34>
      else
        data_low();
 8000490:	f7ff ffd0 	bl	8000434 <data_low>
    for (int i = length-1; i >= 0; i--) {
 8000494:	68bb      	ldr	r3, [r7, #8]
 8000496:	3b01      	subs	r3, #1
 8000498:	60bb      	str	r3, [r7, #8]
 800049a:	68bb      	ldr	r3, [r7, #8]
 800049c:	2b00      	cmp	r3, #0
 800049e:	daeb      	bge.n	8000478 <send_rfid_as_uint32+0x18>
    }
    preamble();
 80004a0:	f7ff ff9c 	bl	80003dc <preamble>
  for (int nRepeat = 0; nRepeat < 10; nRepeat++) {
 80004a4:	68fb      	ldr	r3, [r7, #12]
 80004a6:	3301      	adds	r3, #1
 80004a8:	60fb      	str	r3, [r7, #12]
 80004aa:	68fb      	ldr	r3, [r7, #12]
 80004ac:	2b09      	cmp	r3, #9
 80004ae:	dddf      	ble.n	8000470 <send_rfid_as_uint32+0x10>
  }
}
 80004b0:	bf00      	nop
 80004b2:	bf00      	nop
 80004b4:	3710      	adds	r7, #16
 80004b6:	46bd      	mov	sp, r7
 80004b8:	bd80      	pop	{r7, pc}
	...

080004bc <HAL_MspInit>:
/* USER CODE END 0 */
/**
  * Initializes the Global MSP.
  */
void HAL_MspInit(void)
{
 80004bc:	b480      	push	{r7}
 80004be:	b085      	sub	sp, #20
 80004c0:	af00      	add	r7, sp, #0
  /* USER CODE BEGIN MspInit 0 */

  /* USER CODE END MspInit 0 */

  __HAL_RCC_AFIO_CLK_ENABLE();
 80004c2:	4b15      	ldr	r3, [pc, #84]	; (8000518 <HAL_MspInit+0x5c>)
 80004c4:	699b      	ldr	r3, [r3, #24]
 80004c6:	4a14      	ldr	r2, [pc, #80]	; (8000518 <HAL_MspInit+0x5c>)
 80004c8:	f043 0301 	orr.w	r3, r3, #1
 80004cc:	6193      	str	r3, [r2, #24]
 80004ce:	4b12      	ldr	r3, [pc, #72]	; (8000518 <HAL_MspInit+0x5c>)
 80004d0:	699b      	ldr	r3, [r3, #24]
 80004d2:	f003 0301 	and.w	r3, r3, #1
 80004d6:	60bb      	str	r3, [r7, #8]
 80004d8:	68bb      	ldr	r3, [r7, #8]
  __HAL_RCC_PWR_CLK_ENABLE();
 80004da:	4b0f      	ldr	r3, [pc, #60]	; (8000518 <HAL_MspInit+0x5c>)
 80004dc:	69db      	ldr	r3, [r3, #28]
 80004de:	4a0e      	ldr	r2, [pc, #56]	; (8000518 <HAL_MspInit+0x5c>)
 80004e0:	f043 5380 	orr.w	r3, r3, #268435456	; 0x10000000
 80004e4:	61d3      	str	r3, [r2, #28]
 80004e6:	4b0c      	ldr	r3, [pc, #48]	; (8000518 <HAL_MspInit+0x5c>)
 80004e8:	69db      	ldr	r3, [r3, #28]
 80004ea:	f003 5380 	and.w	r3, r3, #268435456	; 0x10000000
 80004ee:	607b      	str	r3, [r7, #4]
 80004f0:	687b      	ldr	r3, [r7, #4]

  /* System interrupt init*/

  /** NOJTAG: JTAG-DP Disabled and SW-DP Enabled
  */
  __HAL_AFIO_REMAP_SWJ_NOJTAG();
 80004f2:	4b0a      	ldr	r3, [pc, #40]	; (800051c <HAL_MspInit+0x60>)
 80004f4:	685b      	ldr	r3, [r3, #4]
 80004f6:	60fb      	str	r3, [r7, #12]
 80004f8:	68fb      	ldr	r3, [r7, #12]
 80004fa:	f023 63e0 	bic.w	r3, r3, #117440512	; 0x7000000
 80004fe:	60fb      	str	r3, [r7, #12]
 8000500:	68fb      	ldr	r3, [r7, #12]
 8000502:	f043 7300 	orr.w	r3, r3, #33554432	; 0x2000000
 8000506:	60fb      	str	r3, [r7, #12]
 8000508:	4a04      	ldr	r2, [pc, #16]	; (800051c <HAL_MspInit+0x60>)
 800050a:	68fb      	ldr	r3, [r7, #12]
 800050c:	6053      	str	r3, [r2, #4]

  /* USER CODE BEGIN MspInit 1 */

  /* USER CODE END MspInit 1 */
}
 800050e:	bf00      	nop
 8000510:	3714      	adds	r7, #20
 8000512:	46bd      	mov	sp, r7
 8000514:	bc80      	pop	{r7}
 8000516:	4770      	bx	lr
 8000518:	40021000 	.word	0x40021000
 800051c:	40010000 	.word	0x40010000

08000520 <HAL_TIM_Base_MspInit>:
* This function configures the hardware resources used in this example
* @param htim_base: TIM_Base handle pointer
* @retval None
*/
void HAL_TIM_Base_MspInit(TIM_HandleTypeDef* htim_base)
{
 8000520:	b480      	push	{r7}
 8000522:	b085      	sub	sp, #20
 8000524:	af00      	add	r7, sp, #0
 8000526:	6078      	str	r0, [r7, #4]
  if(htim_base->Instance==TIM1)
 8000528:	687b      	ldr	r3, [r7, #4]
 800052a:	681b      	ldr	r3, [r3, #0]
 800052c:	4a09      	ldr	r2, [pc, #36]	; (8000554 <HAL_TIM_Base_MspInit+0x34>)
 800052e:	4293      	cmp	r3, r2
 8000530:	d10b      	bne.n	800054a <HAL_TIM_Base_MspInit+0x2a>
  {
  /* USER CODE BEGIN TIM1_MspInit 0 */

  /* USER CODE END TIM1_MspInit 0 */
    /* Peripheral clock enable */
    __HAL_RCC_TIM1_CLK_ENABLE();
 8000532:	4b09      	ldr	r3, [pc, #36]	; (8000558 <HAL_TIM_Base_MspInit+0x38>)
 8000534:	699b      	ldr	r3, [r3, #24]
 8000536:	4a08      	ldr	r2, [pc, #32]	; (8000558 <HAL_TIM_Base_MspInit+0x38>)
 8000538:	f443 6300 	orr.w	r3, r3, #2048	; 0x800
 800053c:	6193      	str	r3, [r2, #24]
 800053e:	4b06      	ldr	r3, [pc, #24]	; (8000558 <HAL_TIM_Base_MspInit+0x38>)
 8000540:	699b      	ldr	r3, [r3, #24]
 8000542:	f403 6300 	and.w	r3, r3, #2048	; 0x800
 8000546:	60fb      	str	r3, [r7, #12]
 8000548:	68fb      	ldr	r3, [r7, #12]
  /* USER CODE BEGIN TIM1_MspInit 1 */

  /* USER CODE END TIM1_MspInit 1 */
  }

}
 800054a:	bf00      	nop
 800054c:	3714      	adds	r7, #20
 800054e:	46bd      	mov	sp, r7
 8000550:	bc80      	pop	{r7}
 8000552:	4770      	bx	lr
 8000554:	40012c00 	.word	0x40012c00
 8000558:	40021000 	.word	0x40021000

0800055c <NMI_Handler>:
/******************************************************************************/
/**
  * @brief This function handles Non maskable interrupt.
  */
void NMI_Handler(void)
{
 800055c:	b480      	push	{r7}
 800055e:	af00      	add	r7, sp, #0
  /* USER CODE BEGIN NonMaskableInt_IRQn 0 */

  /* USER CODE END NonMaskableInt_IRQn 0 */
  /* USER CODE BEGIN NonMaskableInt_IRQn 1 */
  while (1)
 8000560:	e7fe      	b.n	8000560 <NMI_Handler+0x4>

08000562 <HardFault_Handler>:

/**
  * @brief This function handles Hard fault interrupt.
  */
void HardFault_Handler(void)
{
 8000562:	b480      	push	{r7}
 8000564:	af00      	add	r7, sp, #0
  /* USER CODE BEGIN HardFault_IRQn 0 */

  /* USER CODE END HardFault_IRQn 0 */
  while (1)
 8000566:	e7fe      	b.n	8000566 <HardFault_Handler+0x4>

08000568 <MemManage_Handler>:

/**
  * @brief This function handles Memory management fault.
  */
void MemManage_Handler(void)
{
 8000568:	b480      	push	{r7}
 800056a:	af00      	add	r7, sp, #0
  /* USER CODE BEGIN MemoryManagement_IRQn 0 */

  /* USER CODE END MemoryManagement_IRQn 0 */
  while (1)
 800056c:	e7fe      	b.n	800056c <MemManage_Handler+0x4>

0800056e <BusFault_Handler>:

/**
  * @brief This function handles Prefetch fault, memory access fault.
  */
void BusFault_Handler(void)
{
 800056e:	b480      	push	{r7}
 8000570:	af00      	add	r7, sp, #0
  /* USER CODE BEGIN BusFault_IRQn 0 */

  /* USER CODE END BusFault_IRQn 0 */
  while (1)
 8000572:	e7fe      	b.n	8000572 <BusFault_Handler+0x4>

08000574 <UsageFault_Handler>:

/**
  * @brief This function handles Undefined instruction or illegal state.
  */
void UsageFault_Handler(void)
{
 8000574:	b480      	push	{r7}
 8000576:	af00      	add	r7, sp, #0
  /* USER CODE BEGIN UsageFault_IRQn 0 */

  /* USER CODE END UsageFault_IRQn 0 */
  while (1)
 8000578:	e7fe      	b.n	8000578 <UsageFault_Handler+0x4>

0800057a <SVC_Handler>:

/**
  * @brief This function handles System service call via SWI instruction.
  */
void SVC_Handler(void)
{
 800057a:	b480      	push	{r7}
 800057c:	af00      	add	r7, sp, #0

  /* USER CODE END SVCall_IRQn 0 */
  /* USER CODE BEGIN SVCall_IRQn 1 */

  /* USER CODE END SVCall_IRQn 1 */
}
 800057e:	bf00      	nop
 8000580:	46bd      	mov	sp, r7
 8000582:	bc80      	pop	{r7}
 8000584:	4770      	bx	lr

08000586 <DebugMon_Handler>:

/**
  * @brief This function handles Debug monitor.
  */
void DebugMon_Handler(void)
{
 8000586:	b480      	push	{r7}
 8000588:	af00      	add	r7, sp, #0

  /* USER CODE END DebugMonitor_IRQn 0 */
  /* USER CODE BEGIN DebugMonitor_IRQn 1 */

  /* USER CODE END DebugMonitor_IRQn 1 */
}
 800058a:	bf00      	nop
 800058c:	46bd      	mov	sp, r7
 800058e:	bc80      	pop	{r7}
 8000590:	4770      	bx	lr

08000592 <PendSV_Handler>:

/**
  * @brief This function handles Pendable request for system service.
  */
void PendSV_Handler(void)
{
 8000592:	b480      	push	{r7}
 8000594:	af00      	add	r7, sp, #0

  /* USER CODE END PendSV_IRQn 0 */
  /* USER CODE BEGIN PendSV_IRQn 1 */

  /* USER CODE END PendSV_IRQn 1 */
}
 8000596:	bf00      	nop
 8000598:	46bd      	mov	sp, r7
 800059a:	bc80      	pop	{r7}
 800059c:	4770      	bx	lr

0800059e <SysTick_Handler>:

/**
  * @brief This function handles System tick timer.
  */
void SysTick_Handler(void)
{
 800059e:	b580      	push	{r7, lr}
 80005a0:	af00      	add	r7, sp, #0
  /* USER CODE BEGIN SysTick_IRQn 0 */

  /* USER CODE END SysTick_IRQn 0 */
  HAL_IncTick();
 80005a2:	f000 f875 	bl	8000690 <HAL_IncTick>
  /* USER CODE BEGIN SysTick_IRQn 1 */

  /* USER CODE END SysTick_IRQn 1 */
}
 80005a6:	bf00      	nop
 80005a8:	bd80      	pop	{r7, pc}

080005aa <SystemInit>:
  * @note   This function should be used only after reset.
  * @param  None
  * @retval None
  */
void SystemInit (void)
{
 80005aa:	b480      	push	{r7}
 80005ac:	af00      	add	r7, sp, #0

  /* Configure the Vector Table location -------------------------------------*/
#if defined(USER_VECT_TAB_ADDRESS)
  SCB->VTOR = VECT_TAB_BASE_ADDRESS | VECT_TAB_OFFSET; /* Vector Table Relocation in Internal SRAM. */
#endif /* USER_VECT_TAB_ADDRESS */
}
 80005ae:	bf00      	nop
 80005b0:	46bd      	mov	sp, r7
 80005b2:	bc80      	pop	{r7}
 80005b4:	4770      	bx	lr
	...

080005b8 <Reset_Handler>:
  .weak Reset_Handler
  .type Reset_Handler, %function
Reset_Handler:

/* Call the clock system initialization function.*/
    bl  SystemInit
 80005b8:	f7ff fff7 	bl	80005aa <SystemInit>

/* Copy the data segment initializers from flash to SRAM */
  ldr r0, =_sdata
 80005bc:	480b      	ldr	r0, [pc, #44]	; (80005ec <LoopFillZerobss+0xe>)
  ldr r1, =_edata
 80005be:	490c      	ldr	r1, [pc, #48]	; (80005f0 <LoopFillZerobss+0x12>)
  ldr r2, =_sidata
 80005c0:	4a0c      	ldr	r2, [pc, #48]	; (80005f4 <LoopFillZerobss+0x16>)
  movs r3, #0
 80005c2:	2300      	movs	r3, #0
  b LoopCopyDataInit
 80005c4:	e002      	b.n	80005cc <LoopCopyDataInit>

080005c6 <CopyDataInit>:

CopyDataInit:
  ldr r4, [r2, r3]
 80005c6:	58d4      	ldr	r4, [r2, r3]
  str r4, [r0, r3]
 80005c8:	50c4      	str	r4, [r0, r3]
  adds r3, r3, #4
 80005ca:	3304      	adds	r3, #4

080005cc <LoopCopyDataInit>:

LoopCopyDataInit:
  adds r4, r0, r3
 80005cc:	18c4      	adds	r4, r0, r3
  cmp r4, r1
 80005ce:	428c      	cmp	r4, r1
  bcc CopyDataInit
 80005d0:	d3f9      	bcc.n	80005c6 <CopyDataInit>
  
/* Zero fill the bss segment. */
  ldr r2, =_sbss
 80005d2:	4a09      	ldr	r2, [pc, #36]	; (80005f8 <LoopFillZerobss+0x1a>)
  ldr r4, =_ebss
 80005d4:	4c09      	ldr	r4, [pc, #36]	; (80005fc <LoopFillZerobss+0x1e>)
  movs r3, #0
 80005d6:	2300      	movs	r3, #0
  b LoopFillZerobss
 80005d8:	e001      	b.n	80005de <LoopFillZerobss>

080005da <FillZerobss>:

FillZerobss:
  str  r3, [r2]
 80005da:	6013      	str	r3, [r2, #0]
  adds r2, r2, #4
 80005dc:	3204      	adds	r2, #4

080005de <LoopFillZerobss>:

LoopFillZerobss:
  cmp r2, r4
 80005de:	42a2      	cmp	r2, r4
  bcc FillZerobss
 80005e0:	d3fb      	bcc.n	80005da <FillZerobss>

/* Call static constructors */
    bl __libc_init_array
 80005e2:	f001 f9c5 	bl	8001970 <__libc_init_array>
/* Call the application's entry point.*/
  bl main
 80005e6:	f7ff fdb1 	bl	800014c <main>
  bx lr
 80005ea:	4770      	bx	lr
  ldr r0, =_sdata
 80005ec:	20000000 	.word	0x20000000
  ldr r1, =_edata
 80005f0:	2000000c 	.word	0x2000000c
  ldr r2, =_sidata
 80005f4:	08001a0c 	.word	0x08001a0c
  ldr r2, =_sbss
 80005f8:	2000000c 	.word	0x2000000c
  ldr r4, =_ebss
 80005fc:	20000074 	.word	0x20000074

08000600 <ADC1_2_IRQHandler>:
 * @retval : None
*/
    .section .text.Default_Handler,"ax",%progbits
Default_Handler:
Infinite_Loop:
  b Infinite_Loop
 8000600:	e7fe      	b.n	8000600 <ADC1_2_IRQHandler>
	...

08000604 <HAL_Init>:
  *         need to ensure that the SysTick time base is always set to 1 millisecond
  *         to have correct HAL operation.
  * @retval HAL status
  */
HAL_StatusTypeDef HAL_Init(void)
{
 8000604:	b580      	push	{r7, lr}
 8000606:	af00      	add	r7, sp, #0
    defined(STM32F102x6) || defined(STM32F102xB) || \
    defined(STM32F103x6) || defined(STM32F103xB) || defined(STM32F103xE) || defined(STM32F103xG) || \
    defined(STM32F105xC) || defined(STM32F107xC)

  /* Prefetch buffer is not available on value line devices */
  __HAL_FLASH_PREFETCH_BUFFER_ENABLE();
 8000608:	4b08      	ldr	r3, [pc, #32]	; (800062c <HAL_Init+0x28>)
 800060a:	681b      	ldr	r3, [r3, #0]
 800060c:	4a07      	ldr	r2, [pc, #28]	; (800062c <HAL_Init+0x28>)
 800060e:	f043 0310 	orr.w	r3, r3, #16
 8000612:	6013      	str	r3, [r2, #0]
#endif
#endif /* PREFETCH_ENABLE */

  /* Set Interrupt Group Priority */
  HAL_NVIC_SetPriorityGrouping(NVIC_PRIORITYGROUP_4);
 8000614:	2003      	movs	r0, #3
 8000616:	f000 f92b 	bl	8000870 <HAL_NVIC_SetPriorityGrouping>

  /* Use systick as time base source and configure 1ms tick (default clock after Reset is HSI) */
  HAL_InitTick(TICK_INT_PRIORITY);
 800061a:	200f      	movs	r0, #15
 800061c:	f000 f808 	bl	8000630 <HAL_InitTick>

  /* Init the low level hardware */
  HAL_MspInit();
 8000620:	f7ff ff4c 	bl	80004bc <HAL_MspInit>

  /* Return function status */
  return HAL_OK;
 8000624:	2300      	movs	r3, #0
}
 8000626:	4618      	mov	r0, r3
 8000628:	bd80      	pop	{r7, pc}
 800062a:	bf00      	nop
 800062c:	40022000 	.word	0x40022000

08000630 <HAL_InitTick>:
  *       implementation  in user file.
  * @param TickPriority Tick interrupt priority.
  * @retval HAL status
  */
__weak HAL_StatusTypeDef HAL_InitTick(uint32_t TickPriority)
{
 8000630:	b580      	push	{r7, lr}
 8000632:	b082      	sub	sp, #8
 8000634:	af00      	add	r7, sp, #0
 8000636:	6078      	str	r0, [r7, #4]
  /* Configure the SysTick to have interrupt in 1ms time basis*/
  if (HAL_SYSTICK_Config(SystemCoreClock / (1000U / uwTickFreq)) > 0U)
 8000638:	4b12      	ldr	r3, [pc, #72]	; (8000684 <HAL_InitTick+0x54>)
 800063a:	681a      	ldr	r2, [r3, #0]
 800063c:	4b12      	ldr	r3, [pc, #72]	; (8000688 <HAL_InitTick+0x58>)
 800063e:	781b      	ldrb	r3, [r3, #0]
 8000640:	4619      	mov	r1, r3
 8000642:	f44f 737a 	mov.w	r3, #1000	; 0x3e8
 8000646:	fbb3 f3f1 	udiv	r3, r3, r1
 800064a:	fbb2 f3f3 	udiv	r3, r2, r3
 800064e:	4618      	mov	r0, r3
 8000650:	f000 f935 	bl	80008be <HAL_SYSTICK_Config>
 8000654:	4603      	mov	r3, r0
 8000656:	2b00      	cmp	r3, #0
 8000658:	d001      	beq.n	800065e <HAL_InitTick+0x2e>
  {
    return HAL_ERROR;
 800065a:	2301      	movs	r3, #1
 800065c:	e00e      	b.n	800067c <HAL_InitTick+0x4c>
  }

  /* Configure the SysTick IRQ priority */
  if (TickPriority < (1UL << __NVIC_PRIO_BITS))
 800065e:	687b      	ldr	r3, [r7, #4]
 8000660:	2b0f      	cmp	r3, #15
 8000662:	d80a      	bhi.n	800067a <HAL_InitTick+0x4a>
  {
    HAL_NVIC_SetPriority(SysTick_IRQn, TickPriority, 0U);
 8000664:	2200      	movs	r2, #0
 8000666:	6879      	ldr	r1, [r7, #4]
 8000668:	f04f 30ff 	mov.w	r0, #4294967295
 800066c:	f000 f90b 	bl	8000886 <HAL_NVIC_SetPriority>
    uwTickPrio = TickPriority;
 8000670:	4a06      	ldr	r2, [pc, #24]	; (800068c <HAL_InitTick+0x5c>)
 8000672:	687b      	ldr	r3, [r7, #4]
 8000674:	6013      	str	r3, [r2, #0]
  {
    return HAL_ERROR;
  }

  /* Return function status */
  return HAL_OK;
 8000676:	2300      	movs	r3, #0
 8000678:	e000      	b.n	800067c <HAL_InitTick+0x4c>
    return HAL_ERROR;
 800067a:	2301      	movs	r3, #1
}
 800067c:	4618      	mov	r0, r3
 800067e:	3708      	adds	r7, #8
 8000680:	46bd      	mov	sp, r7
 8000682:	bd80      	pop	{r7, pc}
 8000684:	20000000 	.word	0x20000000
 8000688:	20000008 	.word	0x20000008
 800068c:	20000004 	.word	0x20000004

08000690 <HAL_IncTick>:
  * @note This function is declared as __weak to be overwritten in case of other
  *      implementations in user file.
  * @retval None
  */
__weak void HAL_IncTick(void)
{
 8000690:	b480      	push	{r7}
 8000692:	af00      	add	r7, sp, #0
  uwTick += uwTickFreq;
 8000694:	4b05      	ldr	r3, [pc, #20]	; (80006ac <HAL_IncTick+0x1c>)
 8000696:	781b      	ldrb	r3, [r3, #0]
 8000698:	461a      	mov	r2, r3
 800069a:	4b05      	ldr	r3, [pc, #20]	; (80006b0 <HAL_IncTick+0x20>)
 800069c:	681b      	ldr	r3, [r3, #0]
 800069e:	4413      	add	r3, r2
 80006a0:	4a03      	ldr	r2, [pc, #12]	; (80006b0 <HAL_IncTick+0x20>)
 80006a2:	6013      	str	r3, [r2, #0]
}
 80006a4:	bf00      	nop
 80006a6:	46bd      	mov	sp, r7
 80006a8:	bc80      	pop	{r7}
 80006aa:	4770      	bx	lr
 80006ac:	20000008 	.word	0x20000008
 80006b0:	20000070 	.word	0x20000070

080006b4 <HAL_GetTick>:
  * @note  This function is declared as __weak to be overwritten in case of other
  *       implementations in user file.
  * @retval tick value
  */
__weak uint32_t HAL_GetTick(void)
{
 80006b4:	b480      	push	{r7}
 80006b6:	af00      	add	r7, sp, #0
  return uwTick;
 80006b8:	4b02      	ldr	r3, [pc, #8]	; (80006c4 <HAL_GetTick+0x10>)
 80006ba:	681b      	ldr	r3, [r3, #0]
}
 80006bc:	4618      	mov	r0, r3
 80006be:	46bd      	mov	sp, r7
 80006c0:	bc80      	pop	{r7}
 80006c2:	4770      	bx	lr
 80006c4:	20000070 	.word	0x20000070

080006c8 <HAL_Delay>:
  *       implementations in user file.
  * @param Delay specifies the delay time length, in milliseconds.
  * @retval None
  */
__weak void HAL_Delay(uint32_t Delay)
{
 80006c8:	b580      	push	{r7, lr}
 80006ca:	b084      	sub	sp, #16
 80006cc:	af00      	add	r7, sp, #0
 80006ce:	6078      	str	r0, [r7, #4]
  uint32_t tickstart = HAL_GetTick();
 80006d0:	f7ff fff0 	bl	80006b4 <HAL_GetTick>
 80006d4:	60b8      	str	r0, [r7, #8]
  uint32_t wait = Delay;
 80006d6:	687b      	ldr	r3, [r7, #4]
 80006d8:	60fb      	str	r3, [r7, #12]

  /* Add a freq to guarantee minimum wait */
  if (wait < HAL_MAX_DELAY)
 80006da:	68fb      	ldr	r3, [r7, #12]
 80006dc:	f1b3 3fff 	cmp.w	r3, #4294967295
 80006e0:	d005      	beq.n	80006ee <HAL_Delay+0x26>
  {
    wait += (uint32_t)(uwTickFreq);
 80006e2:	4b0a      	ldr	r3, [pc, #40]	; (800070c <HAL_Delay+0x44>)
 80006e4:	781b      	ldrb	r3, [r3, #0]
 80006e6:	461a      	mov	r2, r3
 80006e8:	68fb      	ldr	r3, [r7, #12]
 80006ea:	4413      	add	r3, r2
 80006ec:	60fb      	str	r3, [r7, #12]
  }

  while ((HAL_GetTick() - tickstart) < wait)
 80006ee:	bf00      	nop
 80006f0:	f7ff ffe0 	bl	80006b4 <HAL_GetTick>
 80006f4:	4602      	mov	r2, r0
 80006f6:	68bb      	ldr	r3, [r7, #8]
 80006f8:	1ad3      	subs	r3, r2, r3
 80006fa:	68fa      	ldr	r2, [r7, #12]
 80006fc:	429a      	cmp	r2, r3
 80006fe:	d8f7      	bhi.n	80006f0 <HAL_Delay+0x28>
  {
  }
}
 8000700:	bf00      	nop
 8000702:	bf00      	nop
 8000704:	3710      	adds	r7, #16
 8000706:	46bd      	mov	sp, r7
 8000708:	bd80      	pop	{r7, pc}
 800070a:	bf00      	nop
 800070c:	20000008 	.word	0x20000008

08000710 <__NVIC_SetPriorityGrouping>:
           In case of a conflict between priority grouping and available
           priority bits (__NVIC_PRIO_BITS), the smallest possible priority group is set.
  \param [in]      PriorityGroup  Priority grouping field.
 */
__STATIC_INLINE void __NVIC_SetPriorityGrouping(uint32_t PriorityGroup)
{
 8000710:	b480      	push	{r7}
 8000712:	b085      	sub	sp, #20
 8000714:	af00      	add	r7, sp, #0
 8000716:	6078      	str	r0, [r7, #4]
  uint32_t reg_value;
  uint32_t PriorityGroupTmp = (PriorityGroup & (uint32_t)0x07UL);             /* only values 0..7 are used          */
 8000718:	687b      	ldr	r3, [r7, #4]
 800071a:	f003 0307 	and.w	r3, r3, #7
 800071e:	60fb      	str	r3, [r7, #12]

  reg_value  =  SCB->AIRCR;                                                   /* read old register configuration    */
 8000720:	4b0c      	ldr	r3, [pc, #48]	; (8000754 <__NVIC_SetPriorityGrouping+0x44>)
 8000722:	68db      	ldr	r3, [r3, #12]
 8000724:	60bb      	str	r3, [r7, #8]
  reg_value &= ~((uint32_t)(SCB_AIRCR_VECTKEY_Msk | SCB_AIRCR_PRIGROUP_Msk)); /* clear bits to change               */
 8000726:	68ba      	ldr	r2, [r7, #8]
 8000728:	f64f 03ff 	movw	r3, #63743	; 0xf8ff
 800072c:	4013      	ands	r3, r2
 800072e:	60bb      	str	r3, [r7, #8]
  reg_value  =  (reg_value                                   |
                ((uint32_t)0x5FAUL << SCB_AIRCR_VECTKEY_Pos) |
                (PriorityGroupTmp << SCB_AIRCR_PRIGROUP_Pos) );               /* Insert write key and priority group */
 8000730:	68fb      	ldr	r3, [r7, #12]
 8000732:	021a      	lsls	r2, r3, #8
                ((uint32_t)0x5FAUL << SCB_AIRCR_VECTKEY_Pos) |
 8000734:	68bb      	ldr	r3, [r7, #8]
 8000736:	4313      	orrs	r3, r2
  reg_value  =  (reg_value                                   |
 8000738:	f043 63bf 	orr.w	r3, r3, #100139008	; 0x5f80000
 800073c:	f443 3300 	orr.w	r3, r3, #131072	; 0x20000
 8000740:	60bb      	str	r3, [r7, #8]
  SCB->AIRCR =  reg_value;
 8000742:	4a04      	ldr	r2, [pc, #16]	; (8000754 <__NVIC_SetPriorityGrouping+0x44>)
 8000744:	68bb      	ldr	r3, [r7, #8]
 8000746:	60d3      	str	r3, [r2, #12]
}
 8000748:	bf00      	nop
 800074a:	3714      	adds	r7, #20
 800074c:	46bd      	mov	sp, r7
 800074e:	bc80      	pop	{r7}
 8000750:	4770      	bx	lr
 8000752:	bf00      	nop
 8000754:	e000ed00 	.word	0xe000ed00

08000758 <__NVIC_GetPriorityGrouping>:
  \brief   Get Priority Grouping
  \details Reads the priority grouping field from the NVIC Interrupt Controller.
  \return                Priority grouping field (SCB->AIRCR [10:8] PRIGROUP field).
 */
__STATIC_INLINE uint32_t __NVIC_GetPriorityGrouping(void)
{
 8000758:	b480      	push	{r7}
 800075a:	af00      	add	r7, sp, #0
  return ((uint32_t)((SCB->AIRCR & SCB_AIRCR_PRIGROUP_Msk) >> SCB_AIRCR_PRIGROUP_Pos));
 800075c:	4b04      	ldr	r3, [pc, #16]	; (8000770 <__NVIC_GetPriorityGrouping+0x18>)
 800075e:	68db      	ldr	r3, [r3, #12]
 8000760:	0a1b      	lsrs	r3, r3, #8
 8000762:	f003 0307 	and.w	r3, r3, #7
}
 8000766:	4618      	mov	r0, r3
 8000768:	46bd      	mov	sp, r7
 800076a:	bc80      	pop	{r7}
 800076c:	4770      	bx	lr
 800076e:	bf00      	nop
 8000770:	e000ed00 	.word	0xe000ed00

08000774 <__NVIC_SetPriority>:
  \param [in]      IRQn  Interrupt number.
  \param [in]  priority  Priority to set.
  \note    The priority cannot be set for every processor exception.
 */
__STATIC_INLINE void __NVIC_SetPriority(IRQn_Type IRQn, uint32_t priority)
{
 8000774:	b480      	push	{r7}
 8000776:	b083      	sub	sp, #12
 8000778:	af00      	add	r7, sp, #0
 800077a:	4603      	mov	r3, r0
 800077c:	6039      	str	r1, [r7, #0]
 800077e:	71fb      	strb	r3, [r7, #7]
  if ((int32_t)(IRQn) >= 0)
 8000780:	f997 3007 	ldrsb.w	r3, [r7, #7]
 8000784:	2b00      	cmp	r3, #0
 8000786:	db0a      	blt.n	800079e <__NVIC_SetPriority+0x2a>
  {
    NVIC->IP[((uint32_t)IRQn)]               = (uint8_t)((priority << (8U - __NVIC_PRIO_BITS)) & (uint32_t)0xFFUL);
 8000788:	683b      	ldr	r3, [r7, #0]
 800078a:	b2da      	uxtb	r2, r3
 800078c:	490c      	ldr	r1, [pc, #48]	; (80007c0 <__NVIC_SetPriority+0x4c>)
 800078e:	f997 3007 	ldrsb.w	r3, [r7, #7]
 8000792:	0112      	lsls	r2, r2, #4
 8000794:	b2d2      	uxtb	r2, r2
 8000796:	440b      	add	r3, r1
 8000798:	f883 2300 	strb.w	r2, [r3, #768]	; 0x300
  }
  else
  {
    SCB->SHP[(((uint32_t)IRQn) & 0xFUL)-4UL] = (uint8_t)((priority << (8U - __NVIC_PRIO_BITS)) & (uint32_t)0xFFUL);
  }
}
 800079c:	e00a      	b.n	80007b4 <__NVIC_SetPriority+0x40>
    SCB->SHP[(((uint32_t)IRQn) & 0xFUL)-4UL] = (uint8_t)((priority << (8U - __NVIC_PRIO_BITS)) & (uint32_t)0xFFUL);
 800079e:	683b      	ldr	r3, [r7, #0]
 80007a0:	b2da      	uxtb	r2, r3
 80007a2:	4908      	ldr	r1, [pc, #32]	; (80007c4 <__NVIC_SetPriority+0x50>)
 80007a4:	79fb      	ldrb	r3, [r7, #7]
 80007a6:	f003 030f 	and.w	r3, r3, #15
 80007aa:	3b04      	subs	r3, #4
 80007ac:	0112      	lsls	r2, r2, #4
 80007ae:	b2d2      	uxtb	r2, r2
 80007b0:	440b      	add	r3, r1
 80007b2:	761a      	strb	r2, [r3, #24]
}
 80007b4:	bf00      	nop
 80007b6:	370c      	adds	r7, #12
 80007b8:	46bd      	mov	sp, r7
 80007ba:	bc80      	pop	{r7}
 80007bc:	4770      	bx	lr
 80007be:	bf00      	nop
 80007c0:	e000e100 	.word	0xe000e100
 80007c4:	e000ed00 	.word	0xe000ed00

080007c8 <NVIC_EncodePriority>:
  \param [in]   PreemptPriority  Preemptive priority value (starting from 0).
  \param [in]       SubPriority  Subpriority value (starting from 0).
  \return                        Encoded priority. Value can be used in the function \ref NVIC_SetPriority().
 */
__STATIC_INLINE uint32_t NVIC_EncodePriority (uint32_t PriorityGroup, uint32_t PreemptPriority, uint32_t SubPriority)
{
 80007c8:	b480      	push	{r7}
 80007ca:	b089      	sub	sp, #36	; 0x24
 80007cc:	af00      	add	r7, sp, #0
 80007ce:	60f8      	str	r0, [r7, #12]
 80007d0:	60b9      	str	r1, [r7, #8]
 80007d2:	607a      	str	r2, [r7, #4]
  uint32_t PriorityGroupTmp = (PriorityGroup & (uint32_t)0x07UL);   /* only values 0..7 are used          */
 80007d4:	68fb      	ldr	r3, [r7, #12]
 80007d6:	f003 0307 	and.w	r3, r3, #7
 80007da:	61fb      	str	r3, [r7, #28]
  uint32_t PreemptPriorityBits;
  uint32_t SubPriorityBits;

  PreemptPriorityBits = ((7UL - PriorityGroupTmp) > (uint32_t)(__NVIC_PRIO_BITS)) ? (uint32_t)(__NVIC_PRIO_BITS) : (uint32_t)(7UL - PriorityGroupTmp);
 80007dc:	69fb      	ldr	r3, [r7, #28]
 80007de:	f1c3 0307 	rsb	r3, r3, #7
 80007e2:	2b04      	cmp	r3, #4
 80007e4:	bf28      	it	cs
 80007e6:	2304      	movcs	r3, #4
 80007e8:	61bb      	str	r3, [r7, #24]
  SubPriorityBits     = ((PriorityGroupTmp + (uint32_t)(__NVIC_PRIO_BITS)) < (uint32_t)7UL) ? (uint32_t)0UL : (uint32_t)((PriorityGroupTmp - 7UL) + (uint32_t)(__NVIC_PRIO_BITS));
 80007ea:	69fb      	ldr	r3, [r7, #28]
 80007ec:	3304      	adds	r3, #4
 80007ee:	2b06      	cmp	r3, #6
 80007f0:	d902      	bls.n	80007f8 <NVIC_EncodePriority+0x30>
 80007f2:	69fb      	ldr	r3, [r7, #28]
 80007f4:	3b03      	subs	r3, #3
 80007f6:	e000      	b.n	80007fa <NVIC_EncodePriority+0x32>
 80007f8:	2300      	movs	r3, #0
 80007fa:	617b      	str	r3, [r7, #20]

  return (
           ((PreemptPriority & (uint32_t)((1UL << (PreemptPriorityBits)) - 1UL)) << SubPriorityBits) |
 80007fc:	f04f 32ff 	mov.w	r2, #4294967295
 8000800:	69bb      	ldr	r3, [r7, #24]
 8000802:	fa02 f303 	lsl.w	r3, r2, r3
 8000806:	43da      	mvns	r2, r3
 8000808:	68bb      	ldr	r3, [r7, #8]
 800080a:	401a      	ands	r2, r3
 800080c:	697b      	ldr	r3, [r7, #20]
 800080e:	409a      	lsls	r2, r3
           ((SubPriority     & (uint32_t)((1UL << (SubPriorityBits    )) - 1UL)))
 8000810:	f04f 31ff 	mov.w	r1, #4294967295
 8000814:	697b      	ldr	r3, [r7, #20]
 8000816:	fa01 f303 	lsl.w	r3, r1, r3
 800081a:	43d9      	mvns	r1, r3
 800081c:	687b      	ldr	r3, [r7, #4]
 800081e:	400b      	ands	r3, r1
           ((PreemptPriority & (uint32_t)((1UL << (PreemptPriorityBits)) - 1UL)) << SubPriorityBits) |
 8000820:	4313      	orrs	r3, r2
         );
}
 8000822:	4618      	mov	r0, r3
 8000824:	3724      	adds	r7, #36	; 0x24
 8000826:	46bd      	mov	sp, r7
 8000828:	bc80      	pop	{r7}
 800082a:	4770      	bx	lr

0800082c <SysTick_Config>:
  \note    When the variable <b>__Vendor_SysTickConfig</b> is set to 1, then the
           function <b>SysTick_Config</b> is not included. In this case, the file <b><i>device</i>.h</b>
           must contain a vendor-specific implementation of this function.
 */
__STATIC_INLINE uint32_t SysTick_Config(uint32_t ticks)
{
 800082c:	b580      	push	{r7, lr}
 800082e:	b082      	sub	sp, #8
 8000830:	af00      	add	r7, sp, #0
 8000832:	6078      	str	r0, [r7, #4]
  if ((ticks - 1UL) > SysTick_LOAD_RELOAD_Msk)
 8000834:	687b      	ldr	r3, [r7, #4]
 8000836:	3b01      	subs	r3, #1
 8000838:	f1b3 7f80 	cmp.w	r3, #16777216	; 0x1000000
 800083c:	d301      	bcc.n	8000842 <SysTick_Config+0x16>
  {
    return (1UL);                                                   /* Reload value impossible */
 800083e:	2301      	movs	r3, #1
 8000840:	e00f      	b.n	8000862 <SysTick_Config+0x36>
  }

  SysTick->LOAD  = (uint32_t)(ticks - 1UL);                         /* set reload register */
 8000842:	4a0a      	ldr	r2, [pc, #40]	; (800086c <SysTick_Config+0x40>)
 8000844:	687b      	ldr	r3, [r7, #4]
 8000846:	3b01      	subs	r3, #1
 8000848:	6053      	str	r3, [r2, #4]
  NVIC_SetPriority (SysTick_IRQn, (1UL << __NVIC_PRIO_BITS) - 1UL); /* set Priority for Systick Interrupt */
 800084a:	210f      	movs	r1, #15
 800084c:	f04f 30ff 	mov.w	r0, #4294967295
 8000850:	f7ff ff90 	bl	8000774 <__NVIC_SetPriority>
  SysTick->VAL   = 0UL;                                             /* Load the SysTick Counter Value */
 8000854:	4b05      	ldr	r3, [pc, #20]	; (800086c <SysTick_Config+0x40>)
 8000856:	2200      	movs	r2, #0
 8000858:	609a      	str	r2, [r3, #8]
  SysTick->CTRL  = SysTick_CTRL_CLKSOURCE_Msk |
 800085a:	4b04      	ldr	r3, [pc, #16]	; (800086c <SysTick_Config+0x40>)
 800085c:	2207      	movs	r2, #7
 800085e:	601a      	str	r2, [r3, #0]
                   SysTick_CTRL_TICKINT_Msk   |
                   SysTick_CTRL_ENABLE_Msk;                         /* Enable SysTick IRQ and SysTick Timer */
  return (0UL);                                                     /* Function successful */
 8000860:	2300      	movs	r3, #0
}
 8000862:	4618      	mov	r0, r3
 8000864:	3708      	adds	r7, #8
 8000866:	46bd      	mov	sp, r7
 8000868:	bd80      	pop	{r7, pc}
 800086a:	bf00      	nop
 800086c:	e000e010 	.word	0xe000e010

08000870 <HAL_NVIC_SetPriorityGrouping>:
  * @note   When the NVIC_PriorityGroup_0 is selected, IRQ preemption is no more possible. 
  *         The pending IRQ priority will be managed only by the subpriority. 
  * @retval None
  */
void HAL_NVIC_SetPriorityGrouping(uint32_t PriorityGroup)
{
 8000870:	b580      	push	{r7, lr}
 8000872:	b082      	sub	sp, #8
 8000874:	af00      	add	r7, sp, #0
 8000876:	6078      	str	r0, [r7, #4]
  /* Check the parameters */
  assert_param(IS_NVIC_PRIORITY_GROUP(PriorityGroup));
  
  /* Set the PRIGROUP[10:8] bits according to the PriorityGroup parameter value */
  NVIC_SetPriorityGrouping(PriorityGroup);
 8000878:	6878      	ldr	r0, [r7, #4]
 800087a:	f7ff ff49 	bl	8000710 <__NVIC_SetPriorityGrouping>
}
 800087e:	bf00      	nop
 8000880:	3708      	adds	r7, #8
 8000882:	46bd      	mov	sp, r7
 8000884:	bd80      	pop	{r7, pc}

08000886 <HAL_NVIC_SetPriority>:
  *         This parameter can be a value between 0 and 15
  *         A lower priority value indicates a higher priority.          
  * @retval None
  */
void HAL_NVIC_SetPriority(IRQn_Type IRQn, uint32_t PreemptPriority, uint32_t SubPriority)
{ 
 8000886:	b580      	push	{r7, lr}
 8000888:	b086      	sub	sp, #24
 800088a:	af00      	add	r7, sp, #0
 800088c:	4603      	mov	r3, r0
 800088e:	60b9      	str	r1, [r7, #8]
 8000890:	607a      	str	r2, [r7, #4]
 8000892:	73fb      	strb	r3, [r7, #15]
  uint32_t prioritygroup = 0x00U;
 8000894:	2300      	movs	r3, #0
 8000896:	617b      	str	r3, [r7, #20]
  
  /* Check the parameters */
  assert_param(IS_NVIC_SUB_PRIORITY(SubPriority));
  assert_param(IS_NVIC_PREEMPTION_PRIORITY(PreemptPriority));
  
  prioritygroup = NVIC_GetPriorityGrouping();
 8000898:	f7ff ff5e 	bl	8000758 <__NVIC_GetPriorityGrouping>
 800089c:	6178      	str	r0, [r7, #20]
  
  NVIC_SetPriority(IRQn, NVIC_EncodePriority(prioritygroup, PreemptPriority, SubPriority));
 800089e:	687a      	ldr	r2, [r7, #4]
 80008a0:	68b9      	ldr	r1, [r7, #8]
 80008a2:	6978      	ldr	r0, [r7, #20]
 80008a4:	f7ff ff90 	bl	80007c8 <NVIC_EncodePriority>
 80008a8:	4602      	mov	r2, r0
 80008aa:	f997 300f 	ldrsb.w	r3, [r7, #15]
 80008ae:	4611      	mov	r1, r2
 80008b0:	4618      	mov	r0, r3
 80008b2:	f7ff ff5f 	bl	8000774 <__NVIC_SetPriority>
}
 80008b6:	bf00      	nop
 80008b8:	3718      	adds	r7, #24
 80008ba:	46bd      	mov	sp, r7
 80008bc:	bd80      	pop	{r7, pc}

080008be <HAL_SYSTICK_Config>:
  * @param  TicksNumb: Specifies the ticks Number of ticks between two interrupts.
  * @retval status:  - 0  Function succeeded.
  *                  - 1  Function failed.
  */
uint32_t HAL_SYSTICK_Config(uint32_t TicksNumb)
{
 80008be:	b580      	push	{r7, lr}
 80008c0:	b082      	sub	sp, #8
 80008c2:	af00      	add	r7, sp, #0
 80008c4:	6078      	str	r0, [r7, #4]
   return SysTick_Config(TicksNumb);
 80008c6:	6878      	ldr	r0, [r7, #4]
 80008c8:	f7ff ffb0 	bl	800082c <SysTick_Config>
 80008cc:	4603      	mov	r3, r0
}
 80008ce:	4618      	mov	r0, r3
 80008d0:	3708      	adds	r7, #8
 80008d2:	46bd      	mov	sp, r7
 80008d4:	bd80      	pop	{r7, pc}
	...

080008d8 <HAL_GPIO_Init>:
  * @param  GPIO_Init: pointer to a GPIO_InitTypeDef structure that contains
  *         the configuration information for the specified GPIO peripheral.
  * @retval None
  */
void HAL_GPIO_Init(GPIO_TypeDef  *GPIOx, GPIO_InitTypeDef *GPIO_Init)
{
 80008d8:	b480      	push	{r7}
 80008da:	b08b      	sub	sp, #44	; 0x2c
 80008dc:	af00      	add	r7, sp, #0
 80008de:	6078      	str	r0, [r7, #4]
 80008e0:	6039      	str	r1, [r7, #0]
  uint32_t position = 0x00u;
 80008e2:	2300      	movs	r3, #0
 80008e4:	627b      	str	r3, [r7, #36]	; 0x24
  uint32_t ioposition;
  uint32_t iocurrent;
  uint32_t temp;
  uint32_t config = 0x00u;
 80008e6:	2300      	movs	r3, #0
 80008e8:	623b      	str	r3, [r7, #32]
  assert_param(IS_GPIO_ALL_INSTANCE(GPIOx));
  assert_param(IS_GPIO_PIN(GPIO_Init->Pin));
  assert_param(IS_GPIO_MODE(GPIO_Init->Mode));

  /* Configure the port pins */
  while (((GPIO_Init->Pin) >> position) != 0x00u)
 80008ea:	e169      	b.n	8000bc0 <HAL_GPIO_Init+0x2e8>
  {
    /* Get the IO position */
    ioposition = (0x01uL << position);
 80008ec:	2201      	movs	r2, #1
 80008ee:	6a7b      	ldr	r3, [r7, #36]	; 0x24
 80008f0:	fa02 f303 	lsl.w	r3, r2, r3
 80008f4:	61fb      	str	r3, [r7, #28]

    /* Get the current IO position */
    iocurrent = (uint32_t)(GPIO_Init->Pin) & ioposition;
 80008f6:	683b      	ldr	r3, [r7, #0]
 80008f8:	681b      	ldr	r3, [r3, #0]
 80008fa:	69fa      	ldr	r2, [r7, #28]
 80008fc:	4013      	ands	r3, r2
 80008fe:	61bb      	str	r3, [r7, #24]

    if (iocurrent == ioposition)
 8000900:	69ba      	ldr	r2, [r7, #24]
 8000902:	69fb      	ldr	r3, [r7, #28]
 8000904:	429a      	cmp	r2, r3
 8000906:	f040 8158 	bne.w	8000bba <HAL_GPIO_Init+0x2e2>
    {
      /* Check the Alternate function parameters */
      assert_param(IS_GPIO_AF_INSTANCE(GPIOx));

      /* Based on the required mode, filling config variable with MODEy[1:0] and CNFy[3:2] corresponding bits */
      switch (GPIO_Init->Mode)
 800090a:	683b      	ldr	r3, [r7, #0]
 800090c:	685b      	ldr	r3, [r3, #4]
 800090e:	4a9a      	ldr	r2, [pc, #616]	; (8000b78 <HAL_GPIO_Init+0x2a0>)
 8000910:	4293      	cmp	r3, r2
 8000912:	d05e      	beq.n	80009d2 <HAL_GPIO_Init+0xfa>
 8000914:	4a98      	ldr	r2, [pc, #608]	; (8000b78 <HAL_GPIO_Init+0x2a0>)
 8000916:	4293      	cmp	r3, r2
 8000918:	d875      	bhi.n	8000a06 <HAL_GPIO_Init+0x12e>
 800091a:	4a98      	ldr	r2, [pc, #608]	; (8000b7c <HAL_GPIO_Init+0x2a4>)
 800091c:	4293      	cmp	r3, r2
 800091e:	d058      	beq.n	80009d2 <HAL_GPIO_Init+0xfa>
 8000920:	4a96      	ldr	r2, [pc, #600]	; (8000b7c <HAL_GPIO_Init+0x2a4>)
 8000922:	4293      	cmp	r3, r2
 8000924:	d86f      	bhi.n	8000a06 <HAL_GPIO_Init+0x12e>
 8000926:	4a96      	ldr	r2, [pc, #600]	; (8000b80 <HAL_GPIO_Init+0x2a8>)
 8000928:	4293      	cmp	r3, r2
 800092a:	d052      	beq.n	80009d2 <HAL_GPIO_Init+0xfa>
 800092c:	4a94      	ldr	r2, [pc, #592]	; (8000b80 <HAL_GPIO_Init+0x2a8>)
 800092e:	4293      	cmp	r3, r2
 8000930:	d869      	bhi.n	8000a06 <HAL_GPIO_Init+0x12e>
 8000932:	4a94      	ldr	r2, [pc, #592]	; (8000b84 <HAL_GPIO_Init+0x2ac>)
 8000934:	4293      	cmp	r3, r2
 8000936:	d04c      	beq.n	80009d2 <HAL_GPIO_Init+0xfa>
 8000938:	4a92      	ldr	r2, [pc, #584]	; (8000b84 <HAL_GPIO_Init+0x2ac>)
 800093a:	4293      	cmp	r3, r2
 800093c:	d863      	bhi.n	8000a06 <HAL_GPIO_Init+0x12e>
 800093e:	4a92      	ldr	r2, [pc, #584]	; (8000b88 <HAL_GPIO_Init+0x2b0>)
 8000940:	4293      	cmp	r3, r2
 8000942:	d046      	beq.n	80009d2 <HAL_GPIO_Init+0xfa>
 8000944:	4a90      	ldr	r2, [pc, #576]	; (8000b88 <HAL_GPIO_Init+0x2b0>)
 8000946:	4293      	cmp	r3, r2
 8000948:	d85d      	bhi.n	8000a06 <HAL_GPIO_Init+0x12e>
 800094a:	2b12      	cmp	r3, #18
 800094c:	d82a      	bhi.n	80009a4 <HAL_GPIO_Init+0xcc>
 800094e:	2b12      	cmp	r3, #18
 8000950:	d859      	bhi.n	8000a06 <HAL_GPIO_Init+0x12e>
 8000952:	a201      	add	r2, pc, #4	; (adr r2, 8000958 <HAL_GPIO_Init+0x80>)
 8000954:	f852 f023 	ldr.w	pc, [r2, r3, lsl #2]
 8000958:	080009d3 	.word	0x080009d3
 800095c:	080009ad 	.word	0x080009ad
 8000960:	080009bf 	.word	0x080009bf
 8000964:	08000a01 	.word	0x08000a01
 8000968:	08000a07 	.word	0x08000a07
 800096c:	08000a07 	.word	0x08000a07
 8000970:	08000a07 	.word	0x08000a07
 8000974:	08000a07 	.word	0x08000a07
 8000978:	08000a07 	.word	0x08000a07
 800097c:	08000a07 	.word	0x08000a07
 8000980:	08000a07 	.word	0x08000a07
 8000984:	08000a07 	.word	0x08000a07
 8000988:	08000a07 	.word	0x08000a07
 800098c:	08000a07 	.word	0x08000a07
 8000990:	08000a07 	.word	0x08000a07
 8000994:	08000a07 	.word	0x08000a07
 8000998:	08000a07 	.word	0x08000a07
 800099c:	080009b5 	.word	0x080009b5
 80009a0:	080009c9 	.word	0x080009c9
 80009a4:	4a79      	ldr	r2, [pc, #484]	; (8000b8c <HAL_GPIO_Init+0x2b4>)
 80009a6:	4293      	cmp	r3, r2
 80009a8:	d013      	beq.n	80009d2 <HAL_GPIO_Init+0xfa>
          config = GPIO_CR_MODE_INPUT + GPIO_CR_CNF_ANALOG;
          break;

        /* Parameters are checked with assert_param */
        default:
          break;
 80009aa:	e02c      	b.n	8000a06 <HAL_GPIO_Init+0x12e>
          config = GPIO_Init->Speed + GPIO_CR_CNF_GP_OUTPUT_PP;
 80009ac:	683b      	ldr	r3, [r7, #0]
 80009ae:	68db      	ldr	r3, [r3, #12]
 80009b0:	623b      	str	r3, [r7, #32]
          break;
 80009b2:	e029      	b.n	8000a08 <HAL_GPIO_Init+0x130>
          config = GPIO_Init->Speed + GPIO_CR_CNF_GP_OUTPUT_OD;
 80009b4:	683b      	ldr	r3, [r7, #0]
 80009b6:	68db      	ldr	r3, [r3, #12]
 80009b8:	3304      	adds	r3, #4
 80009ba:	623b      	str	r3, [r7, #32]
          break;
 80009bc:	e024      	b.n	8000a08 <HAL_GPIO_Init+0x130>
          config = GPIO_Init->Speed + GPIO_CR_CNF_AF_OUTPUT_PP;
 80009be:	683b      	ldr	r3, [r7, #0]
 80009c0:	68db      	ldr	r3, [r3, #12]
 80009c2:	3308      	adds	r3, #8
 80009c4:	623b      	str	r3, [r7, #32]
          break;
 80009c6:	e01f      	b.n	8000a08 <HAL_GPIO_Init+0x130>
          config = GPIO_Init->Speed + GPIO_CR_CNF_AF_OUTPUT_OD;
 80009c8:	683b      	ldr	r3, [r7, #0]
 80009ca:	68db      	ldr	r3, [r3, #12]
 80009cc:	330c      	adds	r3, #12
 80009ce:	623b      	str	r3, [r7, #32]
          break;
 80009d0:	e01a      	b.n	8000a08 <HAL_GPIO_Init+0x130>
          if (GPIO_Init->Pull == GPIO_NOPULL)
 80009d2:	683b      	ldr	r3, [r7, #0]
 80009d4:	689b      	ldr	r3, [r3, #8]
 80009d6:	2b00      	cmp	r3, #0
 80009d8:	d102      	bne.n	80009e0 <HAL_GPIO_Init+0x108>
            config = GPIO_CR_MODE_INPUT + GPIO_CR_CNF_INPUT_FLOATING;
 80009da:	2304      	movs	r3, #4
 80009dc:	623b      	str	r3, [r7, #32]
          break;
 80009de:	e013      	b.n	8000a08 <HAL_GPIO_Init+0x130>
          else if (GPIO_Init->Pull == GPIO_PULLUP)
 80009e0:	683b      	ldr	r3, [r7, #0]
 80009e2:	689b      	ldr	r3, [r3, #8]
 80009e4:	2b01      	cmp	r3, #1
 80009e6:	d105      	bne.n	80009f4 <HAL_GPIO_Init+0x11c>
            config = GPIO_CR_MODE_INPUT + GPIO_CR_CNF_INPUT_PU_PD;
 80009e8:	2308      	movs	r3, #8
 80009ea:	623b      	str	r3, [r7, #32]
            GPIOx->BSRR = ioposition;
 80009ec:	687b      	ldr	r3, [r7, #4]
 80009ee:	69fa      	ldr	r2, [r7, #28]
 80009f0:	611a      	str	r2, [r3, #16]
          break;
 80009f2:	e009      	b.n	8000a08 <HAL_GPIO_Init+0x130>
            config = GPIO_CR_MODE_INPUT + GPIO_CR_CNF_INPUT_PU_PD;
 80009f4:	2308      	movs	r3, #8
 80009f6:	623b      	str	r3, [r7, #32]
            GPIOx->BRR = ioposition;
 80009f8:	687b      	ldr	r3, [r7, #4]
 80009fa:	69fa      	ldr	r2, [r7, #28]
 80009fc:	615a      	str	r2, [r3, #20]
          break;
 80009fe:	e003      	b.n	8000a08 <HAL_GPIO_Init+0x130>
          config = GPIO_CR_MODE_INPUT + GPIO_CR_CNF_ANALOG;
 8000a00:	2300      	movs	r3, #0
 8000a02:	623b      	str	r3, [r7, #32]
          break;
 8000a04:	e000      	b.n	8000a08 <HAL_GPIO_Init+0x130>
          break;
 8000a06:	bf00      	nop
      }

      /* Check if the current bit belongs to first half or last half of the pin count number
       in order to address CRH or CRL register*/
      configregister = (iocurrent < GPIO_PIN_8) ? &GPIOx->CRL     : &GPIOx->CRH;
 8000a08:	69bb      	ldr	r3, [r7, #24]
 8000a0a:	2bff      	cmp	r3, #255	; 0xff
 8000a0c:	d801      	bhi.n	8000a12 <HAL_GPIO_Init+0x13a>
 8000a0e:	687b      	ldr	r3, [r7, #4]
 8000a10:	e001      	b.n	8000a16 <HAL_GPIO_Init+0x13e>
 8000a12:	687b      	ldr	r3, [r7, #4]
 8000a14:	3304      	adds	r3, #4
 8000a16:	617b      	str	r3, [r7, #20]
      registeroffset = (iocurrent < GPIO_PIN_8) ? (position << 2u) : ((position - 8u) << 2u);
 8000a18:	69bb      	ldr	r3, [r7, #24]
 8000a1a:	2bff      	cmp	r3, #255	; 0xff
 8000a1c:	d802      	bhi.n	8000a24 <HAL_GPIO_Init+0x14c>
 8000a1e:	6a7b      	ldr	r3, [r7, #36]	; 0x24
 8000a20:	009b      	lsls	r3, r3, #2
 8000a22:	e002      	b.n	8000a2a <HAL_GPIO_Init+0x152>
 8000a24:	6a7b      	ldr	r3, [r7, #36]	; 0x24
 8000a26:	3b08      	subs	r3, #8
 8000a28:	009b      	lsls	r3, r3, #2
 8000a2a:	613b      	str	r3, [r7, #16]

      /* Apply the new configuration of the pin to the register */
      MODIFY_REG((*configregister), ((GPIO_CRL_MODE0 | GPIO_CRL_CNF0) << registeroffset), (config << registeroffset));
 8000a2c:	697b      	ldr	r3, [r7, #20]
 8000a2e:	681a      	ldr	r2, [r3, #0]
 8000a30:	210f      	movs	r1, #15
 8000a32:	693b      	ldr	r3, [r7, #16]
 8000a34:	fa01 f303 	lsl.w	r3, r1, r3
 8000a38:	43db      	mvns	r3, r3
 8000a3a:	401a      	ands	r2, r3
 8000a3c:	6a39      	ldr	r1, [r7, #32]
 8000a3e:	693b      	ldr	r3, [r7, #16]
 8000a40:	fa01 f303 	lsl.w	r3, r1, r3
 8000a44:	431a      	orrs	r2, r3
 8000a46:	697b      	ldr	r3, [r7, #20]
 8000a48:	601a      	str	r2, [r3, #0]

      /*--------------------- EXTI Mode Configuration ------------------------*/
      /* Configure the External Interrupt or event for the current IO */
      if ((GPIO_Init->Mode & EXTI_MODE) == EXTI_MODE)
 8000a4a:	683b      	ldr	r3, [r7, #0]
 8000a4c:	685b      	ldr	r3, [r3, #4]
 8000a4e:	f003 5380 	and.w	r3, r3, #268435456	; 0x10000000
 8000a52:	2b00      	cmp	r3, #0
 8000a54:	f000 80b1 	beq.w	8000bba <HAL_GPIO_Init+0x2e2>
      {
        /* Enable AFIO Clock */
        __HAL_RCC_AFIO_CLK_ENABLE();
 8000a58:	4b4d      	ldr	r3, [pc, #308]	; (8000b90 <HAL_GPIO_Init+0x2b8>)
 8000a5a:	699b      	ldr	r3, [r3, #24]
 8000a5c:	4a4c      	ldr	r2, [pc, #304]	; (8000b90 <HAL_GPIO_Init+0x2b8>)
 8000a5e:	f043 0301 	orr.w	r3, r3, #1
 8000a62:	6193      	str	r3, [r2, #24]
 8000a64:	4b4a      	ldr	r3, [pc, #296]	; (8000b90 <HAL_GPIO_Init+0x2b8>)
 8000a66:	699b      	ldr	r3, [r3, #24]
 8000a68:	f003 0301 	and.w	r3, r3, #1
 8000a6c:	60bb      	str	r3, [r7, #8]
 8000a6e:	68bb      	ldr	r3, [r7, #8]
        temp = AFIO->EXTICR[position >> 2u];
 8000a70:	4a48      	ldr	r2, [pc, #288]	; (8000b94 <HAL_GPIO_Init+0x2bc>)
 8000a72:	6a7b      	ldr	r3, [r7, #36]	; 0x24
 8000a74:	089b      	lsrs	r3, r3, #2
 8000a76:	3302      	adds	r3, #2
 8000a78:	f852 3023 	ldr.w	r3, [r2, r3, lsl #2]
 8000a7c:	60fb      	str	r3, [r7, #12]
        CLEAR_BIT(temp, (0x0Fu) << (4u * (position & 0x03u)));
 8000a7e:	6a7b      	ldr	r3, [r7, #36]	; 0x24
 8000a80:	f003 0303 	and.w	r3, r3, #3
 8000a84:	009b      	lsls	r3, r3, #2
 8000a86:	220f      	movs	r2, #15
 8000a88:	fa02 f303 	lsl.w	r3, r2, r3
 8000a8c:	43db      	mvns	r3, r3
 8000a8e:	68fa      	ldr	r2, [r7, #12]
 8000a90:	4013      	ands	r3, r2
 8000a92:	60fb      	str	r3, [r7, #12]
        SET_BIT(temp, (GPIO_GET_INDEX(GPIOx)) << (4u * (position & 0x03u)));
 8000a94:	687b      	ldr	r3, [r7, #4]
 8000a96:	4a40      	ldr	r2, [pc, #256]	; (8000b98 <HAL_GPIO_Init+0x2c0>)
 8000a98:	4293      	cmp	r3, r2
 8000a9a:	d013      	beq.n	8000ac4 <HAL_GPIO_Init+0x1ec>
 8000a9c:	687b      	ldr	r3, [r7, #4]
 8000a9e:	4a3f      	ldr	r2, [pc, #252]	; (8000b9c <HAL_GPIO_Init+0x2c4>)
 8000aa0:	4293      	cmp	r3, r2
 8000aa2:	d00d      	beq.n	8000ac0 <HAL_GPIO_Init+0x1e8>
 8000aa4:	687b      	ldr	r3, [r7, #4]
 8000aa6:	4a3e      	ldr	r2, [pc, #248]	; (8000ba0 <HAL_GPIO_Init+0x2c8>)
 8000aa8:	4293      	cmp	r3, r2
 8000aaa:	d007      	beq.n	8000abc <HAL_GPIO_Init+0x1e4>
 8000aac:	687b      	ldr	r3, [r7, #4]
 8000aae:	4a3d      	ldr	r2, [pc, #244]	; (8000ba4 <HAL_GPIO_Init+0x2cc>)
 8000ab0:	4293      	cmp	r3, r2
 8000ab2:	d101      	bne.n	8000ab8 <HAL_GPIO_Init+0x1e0>
 8000ab4:	2303      	movs	r3, #3
 8000ab6:	e006      	b.n	8000ac6 <HAL_GPIO_Init+0x1ee>
 8000ab8:	2304      	movs	r3, #4
 8000aba:	e004      	b.n	8000ac6 <HAL_GPIO_Init+0x1ee>
 8000abc:	2302      	movs	r3, #2
 8000abe:	e002      	b.n	8000ac6 <HAL_GPIO_Init+0x1ee>
 8000ac0:	2301      	movs	r3, #1
 8000ac2:	e000      	b.n	8000ac6 <HAL_GPIO_Init+0x1ee>
 8000ac4:	2300      	movs	r3, #0
 8000ac6:	6a7a      	ldr	r2, [r7, #36]	; 0x24
 8000ac8:	f002 0203 	and.w	r2, r2, #3
 8000acc:	0092      	lsls	r2, r2, #2
 8000ace:	4093      	lsls	r3, r2
 8000ad0:	68fa      	ldr	r2, [r7, #12]
 8000ad2:	4313      	orrs	r3, r2
 8000ad4:	60fb      	str	r3, [r7, #12]
        AFIO->EXTICR[position >> 2u] = temp;
 8000ad6:	492f      	ldr	r1, [pc, #188]	; (8000b94 <HAL_GPIO_Init+0x2bc>)
 8000ad8:	6a7b      	ldr	r3, [r7, #36]	; 0x24
 8000ada:	089b      	lsrs	r3, r3, #2
 8000adc:	3302      	adds	r3, #2
 8000ade:	68fa      	ldr	r2, [r7, #12]
 8000ae0:	f841 2023 	str.w	r2, [r1, r3, lsl #2]


        /* Enable or disable the rising trigger */
        if ((GPIO_Init->Mode & RISING_EDGE) == RISING_EDGE)
 8000ae4:	683b      	ldr	r3, [r7, #0]
 8000ae6:	685b      	ldr	r3, [r3, #4]
 8000ae8:	f403 1380 	and.w	r3, r3, #1048576	; 0x100000
 8000aec:	2b00      	cmp	r3, #0
 8000aee:	d006      	beq.n	8000afe <HAL_GPIO_Init+0x226>
        {
          SET_BIT(EXTI->RTSR, iocurrent);
 8000af0:	4b2d      	ldr	r3, [pc, #180]	; (8000ba8 <HAL_GPIO_Init+0x2d0>)
 8000af2:	689a      	ldr	r2, [r3, #8]
 8000af4:	492c      	ldr	r1, [pc, #176]	; (8000ba8 <HAL_GPIO_Init+0x2d0>)
 8000af6:	69bb      	ldr	r3, [r7, #24]
 8000af8:	4313      	orrs	r3, r2
 8000afa:	608b      	str	r3, [r1, #8]
 8000afc:	e006      	b.n	8000b0c <HAL_GPIO_Init+0x234>
        }
        else
        {
          CLEAR_BIT(EXTI->RTSR, iocurrent);
 8000afe:	4b2a      	ldr	r3, [pc, #168]	; (8000ba8 <HAL_GPIO_Init+0x2d0>)
 8000b00:	689a      	ldr	r2, [r3, #8]
 8000b02:	69bb      	ldr	r3, [r7, #24]
 8000b04:	43db      	mvns	r3, r3
 8000b06:	4928      	ldr	r1, [pc, #160]	; (8000ba8 <HAL_GPIO_Init+0x2d0>)
 8000b08:	4013      	ands	r3, r2
 8000b0a:	608b      	str	r3, [r1, #8]
        }

        /* Enable or disable the falling trigger */
        if ((GPIO_Init->Mode & FALLING_EDGE) == FALLING_EDGE)
 8000b0c:	683b      	ldr	r3, [r7, #0]
 8000b0e:	685b      	ldr	r3, [r3, #4]
 8000b10:	f403 1300 	and.w	r3, r3, #2097152	; 0x200000
 8000b14:	2b00      	cmp	r3, #0
 8000b16:	d006      	beq.n	8000b26 <HAL_GPIO_Init+0x24e>
        {
          SET_BIT(EXTI->FTSR, iocurrent);
 8000b18:	4b23      	ldr	r3, [pc, #140]	; (8000ba8 <HAL_GPIO_Init+0x2d0>)
 8000b1a:	68da      	ldr	r2, [r3, #12]
 8000b1c:	4922      	ldr	r1, [pc, #136]	; (8000ba8 <HAL_GPIO_Init+0x2d0>)
 8000b1e:	69bb      	ldr	r3, [r7, #24]
 8000b20:	4313      	orrs	r3, r2
 8000b22:	60cb      	str	r3, [r1, #12]
 8000b24:	e006      	b.n	8000b34 <HAL_GPIO_Init+0x25c>
        }
        else
        {
          CLEAR_BIT(EXTI->FTSR, iocurrent);
 8000b26:	4b20      	ldr	r3, [pc, #128]	; (8000ba8 <HAL_GPIO_Init+0x2d0>)
 8000b28:	68da      	ldr	r2, [r3, #12]
 8000b2a:	69bb      	ldr	r3, [r7, #24]
 8000b2c:	43db      	mvns	r3, r3
 8000b2e:	491e      	ldr	r1, [pc, #120]	; (8000ba8 <HAL_GPIO_Init+0x2d0>)
 8000b30:	4013      	ands	r3, r2
 8000b32:	60cb      	str	r3, [r1, #12]
        }

        /* Configure the event mask */
        if ((GPIO_Init->Mode & GPIO_MODE_EVT) == GPIO_MODE_EVT)
 8000b34:	683b      	ldr	r3, [r7, #0]
 8000b36:	685b      	ldr	r3, [r3, #4]
 8000b38:	f403 3300 	and.w	r3, r3, #131072	; 0x20000
 8000b3c:	2b00      	cmp	r3, #0
 8000b3e:	d006      	beq.n	8000b4e <HAL_GPIO_Init+0x276>
        {
          SET_BIT(EXTI->EMR, iocurrent);
 8000b40:	4b19      	ldr	r3, [pc, #100]	; (8000ba8 <HAL_GPIO_Init+0x2d0>)
 8000b42:	685a      	ldr	r2, [r3, #4]
 8000b44:	4918      	ldr	r1, [pc, #96]	; (8000ba8 <HAL_GPIO_Init+0x2d0>)
 8000b46:	69bb      	ldr	r3, [r7, #24]
 8000b48:	4313      	orrs	r3, r2
 8000b4a:	604b      	str	r3, [r1, #4]
 8000b4c:	e006      	b.n	8000b5c <HAL_GPIO_Init+0x284>
        }
        else
        {
          CLEAR_BIT(EXTI->EMR, iocurrent);
 8000b4e:	4b16      	ldr	r3, [pc, #88]	; (8000ba8 <HAL_GPIO_Init+0x2d0>)
 8000b50:	685a      	ldr	r2, [r3, #4]
 8000b52:	69bb      	ldr	r3, [r7, #24]
 8000b54:	43db      	mvns	r3, r3
 8000b56:	4914      	ldr	r1, [pc, #80]	; (8000ba8 <HAL_GPIO_Init+0x2d0>)
 8000b58:	4013      	ands	r3, r2
 8000b5a:	604b      	str	r3, [r1, #4]
        }

        /* Configure the interrupt mask */
        if ((GPIO_Init->Mode & GPIO_MODE_IT) == GPIO_MODE_IT)
 8000b5c:	683b      	ldr	r3, [r7, #0]
 8000b5e:	685b      	ldr	r3, [r3, #4]
 8000b60:	f403 3380 	and.w	r3, r3, #65536	; 0x10000
 8000b64:	2b00      	cmp	r3, #0
 8000b66:	d021      	beq.n	8000bac <HAL_GPIO_Init+0x2d4>
        {
          SET_BIT(EXTI->IMR, iocurrent);
 8000b68:	4b0f      	ldr	r3, [pc, #60]	; (8000ba8 <HAL_GPIO_Init+0x2d0>)
 8000b6a:	681a      	ldr	r2, [r3, #0]
 8000b6c:	490e      	ldr	r1, [pc, #56]	; (8000ba8 <HAL_GPIO_Init+0x2d0>)
 8000b6e:	69bb      	ldr	r3, [r7, #24]
 8000b70:	4313      	orrs	r3, r2
 8000b72:	600b      	str	r3, [r1, #0]
 8000b74:	e021      	b.n	8000bba <HAL_GPIO_Init+0x2e2>
 8000b76:	bf00      	nop
 8000b78:	10320000 	.word	0x10320000
 8000b7c:	10310000 	.word	0x10310000
 8000b80:	10220000 	.word	0x10220000
 8000b84:	10210000 	.word	0x10210000
 8000b88:	10120000 	.word	0x10120000
 8000b8c:	10110000 	.word	0x10110000
 8000b90:	40021000 	.word	0x40021000
 8000b94:	40010000 	.word	0x40010000
 8000b98:	40010800 	.word	0x40010800
 8000b9c:	40010c00 	.word	0x40010c00
 8000ba0:	40011000 	.word	0x40011000
 8000ba4:	40011400 	.word	0x40011400
 8000ba8:	40010400 	.word	0x40010400
        }
        else
        {
          CLEAR_BIT(EXTI->IMR, iocurrent);
 8000bac:	4b0b      	ldr	r3, [pc, #44]	; (8000bdc <HAL_GPIO_Init+0x304>)
 8000bae:	681a      	ldr	r2, [r3, #0]
 8000bb0:	69bb      	ldr	r3, [r7, #24]
 8000bb2:	43db      	mvns	r3, r3
 8000bb4:	4909      	ldr	r1, [pc, #36]	; (8000bdc <HAL_GPIO_Init+0x304>)
 8000bb6:	4013      	ands	r3, r2
 8000bb8:	600b      	str	r3, [r1, #0]
        }
      }
    }

	position++;
 8000bba:	6a7b      	ldr	r3, [r7, #36]	; 0x24
 8000bbc:	3301      	adds	r3, #1
 8000bbe:	627b      	str	r3, [r7, #36]	; 0x24
  while (((GPIO_Init->Pin) >> position) != 0x00u)
 8000bc0:	683b      	ldr	r3, [r7, #0]
 8000bc2:	681a      	ldr	r2, [r3, #0]
 8000bc4:	6a7b      	ldr	r3, [r7, #36]	; 0x24
 8000bc6:	fa22 f303 	lsr.w	r3, r2, r3
 8000bca:	2b00      	cmp	r3, #0
 8000bcc:	f47f ae8e 	bne.w	80008ec <HAL_GPIO_Init+0x14>
  }
}
 8000bd0:	bf00      	nop
 8000bd2:	bf00      	nop
 8000bd4:	372c      	adds	r7, #44	; 0x2c
 8000bd6:	46bd      	mov	sp, r7
 8000bd8:	bc80      	pop	{r7}
 8000bda:	4770      	bx	lr
 8000bdc:	40010400 	.word	0x40010400

08000be0 <HAL_GPIO_WritePin>:
  *            @arg GPIO_PIN_RESET: to clear the port pin
  *            @arg GPIO_PIN_SET: to set the port pin
  * @retval None
  */
void HAL_GPIO_WritePin(GPIO_TypeDef *GPIOx, uint16_t GPIO_Pin, GPIO_PinState PinState)
{
 8000be0:	b480      	push	{r7}
 8000be2:	b083      	sub	sp, #12
 8000be4:	af00      	add	r7, sp, #0
 8000be6:	6078      	str	r0, [r7, #4]
 8000be8:	460b      	mov	r3, r1
 8000bea:	807b      	strh	r3, [r7, #2]
 8000bec:	4613      	mov	r3, r2
 8000bee:	707b      	strb	r3, [r7, #1]
  /* Check the parameters */
  assert_param(IS_GPIO_PIN(GPIO_Pin));
  assert_param(IS_GPIO_PIN_ACTION(PinState));

  if (PinState != GPIO_PIN_RESET)
 8000bf0:	787b      	ldrb	r3, [r7, #1]
 8000bf2:	2b00      	cmp	r3, #0
 8000bf4:	d003      	beq.n	8000bfe <HAL_GPIO_WritePin+0x1e>
  {
    GPIOx->BSRR = GPIO_Pin;
 8000bf6:	887a      	ldrh	r2, [r7, #2]
 8000bf8:	687b      	ldr	r3, [r7, #4]
 8000bfa:	611a      	str	r2, [r3, #16]
  }
  else
  {
    GPIOx->BSRR = (uint32_t)GPIO_Pin << 16u;
  }
}
 8000bfc:	e003      	b.n	8000c06 <HAL_GPIO_WritePin+0x26>
    GPIOx->BSRR = (uint32_t)GPIO_Pin << 16u;
 8000bfe:	887b      	ldrh	r3, [r7, #2]
 8000c00:	041a      	lsls	r2, r3, #16
 8000c02:	687b      	ldr	r3, [r7, #4]
 8000c04:	611a      	str	r2, [r3, #16]
}
 8000c06:	bf00      	nop
 8000c08:	370c      	adds	r7, #12
 8000c0a:	46bd      	mov	sp, r7
 8000c0c:	bc80      	pop	{r7}
 8000c0e:	4770      	bx	lr

08000c10 <HAL_GPIO_TogglePin>:
  * @param  GPIOx: where x can be (A..G depending on device used) to select the GPIO peripheral
  * @param  GPIO_Pin: Specifies the pins to be toggled.
  * @retval None
  */
void HAL_GPIO_TogglePin(GPIO_TypeDef *GPIOx, uint16_t GPIO_Pin)
{
 8000c10:	b480      	push	{r7}
 8000c12:	b085      	sub	sp, #20
 8000c14:	af00      	add	r7, sp, #0
 8000c16:	6078      	str	r0, [r7, #4]
 8000c18:	460b      	mov	r3, r1
 8000c1a:	807b      	strh	r3, [r7, #2]

  /* Check the parameters */
  assert_param(IS_GPIO_PIN(GPIO_Pin));

  /* get current Output Data Register value */
  odr = GPIOx->ODR;
 8000c1c:	687b      	ldr	r3, [r7, #4]
 8000c1e:	68db      	ldr	r3, [r3, #12]
 8000c20:	60fb      	str	r3, [r7, #12]

  /* Set selected pins that were at low level, and reset ones that were high */
  GPIOx->BSRR = ((odr & GPIO_Pin) << GPIO_NUMBER) | (~odr & GPIO_Pin);
 8000c22:	887a      	ldrh	r2, [r7, #2]
 8000c24:	68fb      	ldr	r3, [r7, #12]
 8000c26:	4013      	ands	r3, r2
 8000c28:	041a      	lsls	r2, r3, #16
 8000c2a:	68fb      	ldr	r3, [r7, #12]
 8000c2c:	43d9      	mvns	r1, r3
 8000c2e:	887b      	ldrh	r3, [r7, #2]
 8000c30:	400b      	ands	r3, r1
 8000c32:	431a      	orrs	r2, r3
 8000c34:	687b      	ldr	r3, [r7, #4]
 8000c36:	611a      	str	r2, [r3, #16]
}
 8000c38:	bf00      	nop
 8000c3a:	3714      	adds	r7, #20
 8000c3c:	46bd      	mov	sp, r7
 8000c3e:	bc80      	pop	{r7}
 8000c40:	4770      	bx	lr
	...

08000c44 <HAL_RCC_OscConfig>:
  *         supported by this macro. User should request a transition to HSE Off
  *         first and then HSE On or HSE Bypass.
  * @retval HAL status
  */
HAL_StatusTypeDef HAL_RCC_OscConfig(RCC_OscInitTypeDef  *RCC_OscInitStruct)
{
 8000c44:	b580      	push	{r7, lr}
 8000c46:	b086      	sub	sp, #24
 8000c48:	af00      	add	r7, sp, #0
 8000c4a:	6078      	str	r0, [r7, #4]
  uint32_t tickstart;
  uint32_t pll_config;

  /* Check Null pointer */
  if (RCC_OscInitStruct == NULL)
 8000c4c:	687b      	ldr	r3, [r7, #4]
 8000c4e:	2b00      	cmp	r3, #0
 8000c50:	d101      	bne.n	8000c56 <HAL_RCC_OscConfig+0x12>
  {
    return HAL_ERROR;
 8000c52:	2301      	movs	r3, #1
 8000c54:	e272      	b.n	800113c <HAL_RCC_OscConfig+0x4f8>

  /* Check the parameters */
  assert_param(IS_RCC_OSCILLATORTYPE(RCC_OscInitStruct->OscillatorType));

  /*------------------------------- HSE Configuration ------------------------*/
  if (((RCC_OscInitStruct->OscillatorType) & RCC_OSCILLATORTYPE_HSE) == RCC_OSCILLATORTYPE_HSE)
 8000c56:	687b      	ldr	r3, [r7, #4]
 8000c58:	681b      	ldr	r3, [r3, #0]
 8000c5a:	f003 0301 	and.w	r3, r3, #1
 8000c5e:	2b00      	cmp	r3, #0
 8000c60:	f000 8087 	beq.w	8000d72 <HAL_RCC_OscConfig+0x12e>
  {
    /* Check the parameters */
    assert_param(IS_RCC_HSE(RCC_OscInitStruct->HSEState));

    /* When the HSE is used as system clock or clock source for PLL in these cases it is not allowed to be disabled */
    if ((__HAL_RCC_GET_SYSCLK_SOURCE() == RCC_SYSCLKSOURCE_STATUS_HSE)
 8000c64:	4b92      	ldr	r3, [pc, #584]	; (8000eb0 <HAL_RCC_OscConfig+0x26c>)
 8000c66:	685b      	ldr	r3, [r3, #4]
 8000c68:	f003 030c 	and.w	r3, r3, #12
 8000c6c:	2b04      	cmp	r3, #4
 8000c6e:	d00c      	beq.n	8000c8a <HAL_RCC_OscConfig+0x46>
        || ((__HAL_RCC_GET_SYSCLK_SOURCE() == RCC_SYSCLKSOURCE_STATUS_PLLCLK) && (__HAL_RCC_GET_PLL_OSCSOURCE() == RCC_PLLSOURCE_HSE)))
 8000c70:	4b8f      	ldr	r3, [pc, #572]	; (8000eb0 <HAL_RCC_OscConfig+0x26c>)
 8000c72:	685b      	ldr	r3, [r3, #4]
 8000c74:	f003 030c 	and.w	r3, r3, #12
 8000c78:	2b08      	cmp	r3, #8
 8000c7a:	d112      	bne.n	8000ca2 <HAL_RCC_OscConfig+0x5e>
 8000c7c:	4b8c      	ldr	r3, [pc, #560]	; (8000eb0 <HAL_RCC_OscConfig+0x26c>)
 8000c7e:	685b      	ldr	r3, [r3, #4]
 8000c80:	f403 3380 	and.w	r3, r3, #65536	; 0x10000
 8000c84:	f5b3 3f80 	cmp.w	r3, #65536	; 0x10000
 8000c88:	d10b      	bne.n	8000ca2 <HAL_RCC_OscConfig+0x5e>
    {
      if ((__HAL_RCC_GET_FLAG(RCC_FLAG_HSERDY) != RESET) && (RCC_OscInitStruct->HSEState == RCC_HSE_OFF))
 8000c8a:	4b89      	ldr	r3, [pc, #548]	; (8000eb0 <HAL_RCC_OscConfig+0x26c>)
 8000c8c:	681b      	ldr	r3, [r3, #0]
 8000c8e:	f403 3300 	and.w	r3, r3, #131072	; 0x20000
 8000c92:	2b00      	cmp	r3, #0
 8000c94:	d06c      	beq.n	8000d70 <HAL_RCC_OscConfig+0x12c>
 8000c96:	687b      	ldr	r3, [r7, #4]
 8000c98:	685b      	ldr	r3, [r3, #4]
 8000c9a:	2b00      	cmp	r3, #0
 8000c9c:	d168      	bne.n	8000d70 <HAL_RCC_OscConfig+0x12c>
      {
        return HAL_ERROR;
 8000c9e:	2301      	movs	r3, #1
 8000ca0:	e24c      	b.n	800113c <HAL_RCC_OscConfig+0x4f8>
      }
    }
    else
    {
      /* Set the new HSE configuration ---------------------------------------*/
      __HAL_RCC_HSE_CONFIG(RCC_OscInitStruct->HSEState);
 8000ca2:	687b      	ldr	r3, [r7, #4]
 8000ca4:	685b      	ldr	r3, [r3, #4]
 8000ca6:	f5b3 3f80 	cmp.w	r3, #65536	; 0x10000
 8000caa:	d106      	bne.n	8000cba <HAL_RCC_OscConfig+0x76>
 8000cac:	4b80      	ldr	r3, [pc, #512]	; (8000eb0 <HAL_RCC_OscConfig+0x26c>)
 8000cae:	681b      	ldr	r3, [r3, #0]
 8000cb0:	4a7f      	ldr	r2, [pc, #508]	; (8000eb0 <HAL_RCC_OscConfig+0x26c>)
 8000cb2:	f443 3380 	orr.w	r3, r3, #65536	; 0x10000
 8000cb6:	6013      	str	r3, [r2, #0]
 8000cb8:	e02e      	b.n	8000d18 <HAL_RCC_OscConfig+0xd4>
 8000cba:	687b      	ldr	r3, [r7, #4]
 8000cbc:	685b      	ldr	r3, [r3, #4]
 8000cbe:	2b00      	cmp	r3, #0
 8000cc0:	d10c      	bne.n	8000cdc <HAL_RCC_OscConfig+0x98>
 8000cc2:	4b7b      	ldr	r3, [pc, #492]	; (8000eb0 <HAL_RCC_OscConfig+0x26c>)
 8000cc4:	681b      	ldr	r3, [r3, #0]
 8000cc6:	4a7a      	ldr	r2, [pc, #488]	; (8000eb0 <HAL_RCC_OscConfig+0x26c>)
 8000cc8:	f423 3380 	bic.w	r3, r3, #65536	; 0x10000
 8000ccc:	6013      	str	r3, [r2, #0]
 8000cce:	4b78      	ldr	r3, [pc, #480]	; (8000eb0 <HAL_RCC_OscConfig+0x26c>)
 8000cd0:	681b      	ldr	r3, [r3, #0]
 8000cd2:	4a77      	ldr	r2, [pc, #476]	; (8000eb0 <HAL_RCC_OscConfig+0x26c>)
 8000cd4:	f423 2380 	bic.w	r3, r3, #262144	; 0x40000
 8000cd8:	6013      	str	r3, [r2, #0]
 8000cda:	e01d      	b.n	8000d18 <HAL_RCC_OscConfig+0xd4>
 8000cdc:	687b      	ldr	r3, [r7, #4]
 8000cde:	685b      	ldr	r3, [r3, #4]
 8000ce0:	f5b3 2fa0 	cmp.w	r3, #327680	; 0x50000
 8000ce4:	d10c      	bne.n	8000d00 <HAL_RCC_OscConfig+0xbc>
 8000ce6:	4b72      	ldr	r3, [pc, #456]	; (8000eb0 <HAL_RCC_OscConfig+0x26c>)
 8000ce8:	681b      	ldr	r3, [r3, #0]
 8000cea:	4a71      	ldr	r2, [pc, #452]	; (8000eb0 <HAL_RCC_OscConfig+0x26c>)
 8000cec:	f443 2380 	orr.w	r3, r3, #262144	; 0x40000
 8000cf0:	6013      	str	r3, [r2, #0]
 8000cf2:	4b6f      	ldr	r3, [pc, #444]	; (8000eb0 <HAL_RCC_OscConfig+0x26c>)
 8000cf4:	681b      	ldr	r3, [r3, #0]
 8000cf6:	4a6e      	ldr	r2, [pc, #440]	; (8000eb0 <HAL_RCC_OscConfig+0x26c>)
 8000cf8:	f443 3380 	orr.w	r3, r3, #65536	; 0x10000
 8000cfc:	6013      	str	r3, [r2, #0]
 8000cfe:	e00b      	b.n	8000d18 <HAL_RCC_OscConfig+0xd4>
 8000d00:	4b6b      	ldr	r3, [pc, #428]	; (8000eb0 <HAL_RCC_OscConfig+0x26c>)
 8000d02:	681b      	ldr	r3, [r3, #0]
 8000d04:	4a6a      	ldr	r2, [pc, #424]	; (8000eb0 <HAL_RCC_OscConfig+0x26c>)
 8000d06:	f423 3380 	bic.w	r3, r3, #65536	; 0x10000
 8000d0a:	6013      	str	r3, [r2, #0]
 8000d0c:	4b68      	ldr	r3, [pc, #416]	; (8000eb0 <HAL_RCC_OscConfig+0x26c>)
 8000d0e:	681b      	ldr	r3, [r3, #0]
 8000d10:	4a67      	ldr	r2, [pc, #412]	; (8000eb0 <HAL_RCC_OscConfig+0x26c>)
 8000d12:	f423 2380 	bic.w	r3, r3, #262144	; 0x40000
 8000d16:	6013      	str	r3, [r2, #0]


      /* Check the HSE State */
      if (RCC_OscInitStruct->HSEState != RCC_HSE_OFF)
 8000d18:	687b      	ldr	r3, [r7, #4]
 8000d1a:	685b      	ldr	r3, [r3, #4]
 8000d1c:	2b00      	cmp	r3, #0
 8000d1e:	d013      	beq.n	8000d48 <HAL_RCC_OscConfig+0x104>
      {
        /* Get Start Tick */
        tickstart = HAL_GetTick();
 8000d20:	f7ff fcc8 	bl	80006b4 <HAL_GetTick>
 8000d24:	6138      	str	r0, [r7, #16]

        /* Wait till HSE is ready */
        while (__HAL_RCC_GET_FLAG(RCC_FLAG_HSERDY) == RESET)
 8000d26:	e008      	b.n	8000d3a <HAL_RCC_OscConfig+0xf6>
        {
          if ((HAL_GetTick() - tickstart) > HSE_TIMEOUT_VALUE)
 8000d28:	f7ff fcc4 	bl	80006b4 <HAL_GetTick>
 8000d2c:	4602      	mov	r2, r0
 8000d2e:	693b      	ldr	r3, [r7, #16]
 8000d30:	1ad3      	subs	r3, r2, r3
 8000d32:	2b64      	cmp	r3, #100	; 0x64
 8000d34:	d901      	bls.n	8000d3a <HAL_RCC_OscConfig+0xf6>
          {
            return HAL_TIMEOUT;
 8000d36:	2303      	movs	r3, #3
 8000d38:	e200      	b.n	800113c <HAL_RCC_OscConfig+0x4f8>
        while (__HAL_RCC_GET_FLAG(RCC_FLAG_HSERDY) == RESET)
 8000d3a:	4b5d      	ldr	r3, [pc, #372]	; (8000eb0 <HAL_RCC_OscConfig+0x26c>)
 8000d3c:	681b      	ldr	r3, [r3, #0]
 8000d3e:	f403 3300 	and.w	r3, r3, #131072	; 0x20000
 8000d42:	2b00      	cmp	r3, #0
 8000d44:	d0f0      	beq.n	8000d28 <HAL_RCC_OscConfig+0xe4>
 8000d46:	e014      	b.n	8000d72 <HAL_RCC_OscConfig+0x12e>
        }
      }
      else
      {
        /* Get Start Tick */
        tickstart = HAL_GetTick();
 8000d48:	f7ff fcb4 	bl	80006b4 <HAL_GetTick>
 8000d4c:	6138      	str	r0, [r7, #16]

        /* Wait till HSE is disabled */
        while (__HAL_RCC_GET_FLAG(RCC_FLAG_HSERDY) != RESET)
 8000d4e:	e008      	b.n	8000d62 <HAL_RCC_OscConfig+0x11e>
        {
          if ((HAL_GetTick() - tickstart) > HSE_TIMEOUT_VALUE)
 8000d50:	f7ff fcb0 	bl	80006b4 <HAL_GetTick>
 8000d54:	4602      	mov	r2, r0
 8000d56:	693b      	ldr	r3, [r7, #16]
 8000d58:	1ad3      	subs	r3, r2, r3
 8000d5a:	2b64      	cmp	r3, #100	; 0x64
 8000d5c:	d901      	bls.n	8000d62 <HAL_RCC_OscConfig+0x11e>
          {
            return HAL_TIMEOUT;
 8000d5e:	2303      	movs	r3, #3
 8000d60:	e1ec      	b.n	800113c <HAL_RCC_OscConfig+0x4f8>
        while (__HAL_RCC_GET_FLAG(RCC_FLAG_HSERDY) != RESET)
 8000d62:	4b53      	ldr	r3, [pc, #332]	; (8000eb0 <HAL_RCC_OscConfig+0x26c>)
 8000d64:	681b      	ldr	r3, [r3, #0]
 8000d66:	f403 3300 	and.w	r3, r3, #131072	; 0x20000
 8000d6a:	2b00      	cmp	r3, #0
 8000d6c:	d1f0      	bne.n	8000d50 <HAL_RCC_OscConfig+0x10c>
 8000d6e:	e000      	b.n	8000d72 <HAL_RCC_OscConfig+0x12e>
      if ((__HAL_RCC_GET_FLAG(RCC_FLAG_HSERDY) != RESET) && (RCC_OscInitStruct->HSEState == RCC_HSE_OFF))
 8000d70:	bf00      	nop
        }
      }
    }
  }
  /*----------------------------- HSI Configuration --------------------------*/
  if (((RCC_OscInitStruct->OscillatorType) & RCC_OSCILLATORTYPE_HSI) == RCC_OSCILLATORTYPE_HSI)
 8000d72:	687b      	ldr	r3, [r7, #4]
 8000d74:	681b      	ldr	r3, [r3, #0]
 8000d76:	f003 0302 	and.w	r3, r3, #2
 8000d7a:	2b00      	cmp	r3, #0
 8000d7c:	d063      	beq.n	8000e46 <HAL_RCC_OscConfig+0x202>
    /* Check the parameters */
    assert_param(IS_RCC_HSI(RCC_OscInitStruct->HSIState));
    assert_param(IS_RCC_CALIBRATION_VALUE(RCC_OscInitStruct->HSICalibrationValue));

    /* Check if HSI is used as system clock or as PLL source when PLL is selected as system clock */
    if ((__HAL_RCC_GET_SYSCLK_SOURCE() == RCC_SYSCLKSOURCE_STATUS_HSI)
 8000d7e:	4b4c      	ldr	r3, [pc, #304]	; (8000eb0 <HAL_RCC_OscConfig+0x26c>)
 8000d80:	685b      	ldr	r3, [r3, #4]
 8000d82:	f003 030c 	and.w	r3, r3, #12
 8000d86:	2b00      	cmp	r3, #0
 8000d88:	d00b      	beq.n	8000da2 <HAL_RCC_OscConfig+0x15e>
        || ((__HAL_RCC_GET_SYSCLK_SOURCE() == RCC_SYSCLKSOURCE_STATUS_PLLCLK) && (__HAL_RCC_GET_PLL_OSCSOURCE() == RCC_PLLSOURCE_HSI_DIV2)))
 8000d8a:	4b49      	ldr	r3, [pc, #292]	; (8000eb0 <HAL_RCC_OscConfig+0x26c>)
 8000d8c:	685b      	ldr	r3, [r3, #4]
 8000d8e:	f003 030c 	and.w	r3, r3, #12
 8000d92:	2b08      	cmp	r3, #8
 8000d94:	d11c      	bne.n	8000dd0 <HAL_RCC_OscConfig+0x18c>
 8000d96:	4b46      	ldr	r3, [pc, #280]	; (8000eb0 <HAL_RCC_OscConfig+0x26c>)
 8000d98:	685b      	ldr	r3, [r3, #4]
 8000d9a:	f403 3380 	and.w	r3, r3, #65536	; 0x10000
 8000d9e:	2b00      	cmp	r3, #0
 8000da0:	d116      	bne.n	8000dd0 <HAL_RCC_OscConfig+0x18c>
    {
      /* When HSI is used as system clock it will not disabled */
      if ((__HAL_RCC_GET_FLAG(RCC_FLAG_HSIRDY) != RESET) && (RCC_OscInitStruct->HSIState != RCC_HSI_ON))
 8000da2:	4b43      	ldr	r3, [pc, #268]	; (8000eb0 <HAL_RCC_OscConfig+0x26c>)
 8000da4:	681b      	ldr	r3, [r3, #0]
 8000da6:	f003 0302 	and.w	r3, r3, #2
 8000daa:	2b00      	cmp	r3, #0
 8000dac:	d005      	beq.n	8000dba <HAL_RCC_OscConfig+0x176>
 8000dae:	687b      	ldr	r3, [r7, #4]
 8000db0:	691b      	ldr	r3, [r3, #16]
 8000db2:	2b01      	cmp	r3, #1
 8000db4:	d001      	beq.n	8000dba <HAL_RCC_OscConfig+0x176>
      {
        return HAL_ERROR;
 8000db6:	2301      	movs	r3, #1
 8000db8:	e1c0      	b.n	800113c <HAL_RCC_OscConfig+0x4f8>
      }
      /* Otherwise, just the calibration is allowed */
      else
      {
        /* Adjusts the Internal High Speed oscillator (HSI) calibration value.*/
        __HAL_RCC_HSI_CALIBRATIONVALUE_ADJUST(RCC_OscInitStruct->HSICalibrationValue);
 8000dba:	4b3d      	ldr	r3, [pc, #244]	; (8000eb0 <HAL_RCC_OscConfig+0x26c>)
 8000dbc:	681b      	ldr	r3, [r3, #0]
 8000dbe:	f023 02f8 	bic.w	r2, r3, #248	; 0xf8
 8000dc2:	687b      	ldr	r3, [r7, #4]
 8000dc4:	695b      	ldr	r3, [r3, #20]
 8000dc6:	00db      	lsls	r3, r3, #3
 8000dc8:	4939      	ldr	r1, [pc, #228]	; (8000eb0 <HAL_RCC_OscConfig+0x26c>)
 8000dca:	4313      	orrs	r3, r2
 8000dcc:	600b      	str	r3, [r1, #0]
      if ((__HAL_RCC_GET_FLAG(RCC_FLAG_HSIRDY) != RESET) && (RCC_OscInitStruct->HSIState != RCC_HSI_ON))
 8000dce:	e03a      	b.n	8000e46 <HAL_RCC_OscConfig+0x202>
      }
    }
    else
    {
      /* Check the HSI State */
      if (RCC_OscInitStruct->HSIState != RCC_HSI_OFF)
 8000dd0:	687b      	ldr	r3, [r7, #4]
 8000dd2:	691b      	ldr	r3, [r3, #16]
 8000dd4:	2b00      	cmp	r3, #0
 8000dd6:	d020      	beq.n	8000e1a <HAL_RCC_OscConfig+0x1d6>
      {
        /* Enable the Internal High Speed oscillator (HSI). */
        __HAL_RCC_HSI_ENABLE();
 8000dd8:	4b36      	ldr	r3, [pc, #216]	; (8000eb4 <HAL_RCC_OscConfig+0x270>)
 8000dda:	2201      	movs	r2, #1
 8000ddc:	601a      	str	r2, [r3, #0]

        /* Get Start Tick */
        tickstart = HAL_GetTick();
 8000dde:	f7ff fc69 	bl	80006b4 <HAL_GetTick>
 8000de2:	6138      	str	r0, [r7, #16]

        /* Wait till HSI is ready */
        while (__HAL_RCC_GET_FLAG(RCC_FLAG_HSIRDY) == RESET)
 8000de4:	e008      	b.n	8000df8 <HAL_RCC_OscConfig+0x1b4>
        {
          if ((HAL_GetTick() - tickstart) > HSI_TIMEOUT_VALUE)
 8000de6:	f7ff fc65 	bl	80006b4 <HAL_GetTick>
 8000dea:	4602      	mov	r2, r0
 8000dec:	693b      	ldr	r3, [r7, #16]
 8000dee:	1ad3      	subs	r3, r2, r3
 8000df0:	2b02      	cmp	r3, #2
 8000df2:	d901      	bls.n	8000df8 <HAL_RCC_OscConfig+0x1b4>
          {
            return HAL_TIMEOUT;
 8000df4:	2303      	movs	r3, #3
 8000df6:	e1a1      	b.n	800113c <HAL_RCC_OscConfig+0x4f8>
        while (__HAL_RCC_GET_FLAG(RCC_FLAG_HSIRDY) == RESET)
 8000df8:	4b2d      	ldr	r3, [pc, #180]	; (8000eb0 <HAL_RCC_OscConfig+0x26c>)
 8000dfa:	681b      	ldr	r3, [r3, #0]
 8000dfc:	f003 0302 	and.w	r3, r3, #2
 8000e00:	2b00      	cmp	r3, #0
 8000e02:	d0f0      	beq.n	8000de6 <HAL_RCC_OscConfig+0x1a2>
          }
        }

        /* Adjusts the Internal High Speed oscillator (HSI) calibration value.*/
        __HAL_RCC_HSI_CALIBRATIONVALUE_ADJUST(RCC_OscInitStruct->HSICalibrationValue);
 8000e04:	4b2a      	ldr	r3, [pc, #168]	; (8000eb0 <HAL_RCC_OscConfig+0x26c>)
 8000e06:	681b      	ldr	r3, [r3, #0]
 8000e08:	f023 02f8 	bic.w	r2, r3, #248	; 0xf8
 8000e0c:	687b      	ldr	r3, [r7, #4]
 8000e0e:	695b      	ldr	r3, [r3, #20]
 8000e10:	00db      	lsls	r3, r3, #3
 8000e12:	4927      	ldr	r1, [pc, #156]	; (8000eb0 <HAL_RCC_OscConfig+0x26c>)
 8000e14:	4313      	orrs	r3, r2
 8000e16:	600b      	str	r3, [r1, #0]
 8000e18:	e015      	b.n	8000e46 <HAL_RCC_OscConfig+0x202>
      }
      else
      {
        /* Disable the Internal High Speed oscillator (HSI). */
        __HAL_RCC_HSI_DISABLE();
 8000e1a:	4b26      	ldr	r3, [pc, #152]	; (8000eb4 <HAL_RCC_OscConfig+0x270>)
 8000e1c:	2200      	movs	r2, #0
 8000e1e:	601a      	str	r2, [r3, #0]

        /* Get Start Tick */
        tickstart = HAL_GetTick();
 8000e20:	f7ff fc48 	bl	80006b4 <HAL_GetTick>
 8000e24:	6138      	str	r0, [r7, #16]

        /* Wait till HSI is disabled */
        while (__HAL_RCC_GET_FLAG(RCC_FLAG_HSIRDY) != RESET)
 8000e26:	e008      	b.n	8000e3a <HAL_RCC_OscConfig+0x1f6>
        {
          if ((HAL_GetTick() - tickstart) > HSI_TIMEOUT_VALUE)
 8000e28:	f7ff fc44 	bl	80006b4 <HAL_GetTick>
 8000e2c:	4602      	mov	r2, r0
 8000e2e:	693b      	ldr	r3, [r7, #16]
 8000e30:	1ad3      	subs	r3, r2, r3
 8000e32:	2b02      	cmp	r3, #2
 8000e34:	d901      	bls.n	8000e3a <HAL_RCC_OscConfig+0x1f6>
          {
            return HAL_TIMEOUT;
 8000e36:	2303      	movs	r3, #3
 8000e38:	e180      	b.n	800113c <HAL_RCC_OscConfig+0x4f8>
        while (__HAL_RCC_GET_FLAG(RCC_FLAG_HSIRDY) != RESET)
 8000e3a:	4b1d      	ldr	r3, [pc, #116]	; (8000eb0 <HAL_RCC_OscConfig+0x26c>)
 8000e3c:	681b      	ldr	r3, [r3, #0]
 8000e3e:	f003 0302 	and.w	r3, r3, #2
 8000e42:	2b00      	cmp	r3, #0
 8000e44:	d1f0      	bne.n	8000e28 <HAL_RCC_OscConfig+0x1e4>
        }
      }
    }
  }
  /*------------------------------ LSI Configuration -------------------------*/
  if (((RCC_OscInitStruct->OscillatorType) & RCC_OSCILLATORTYPE_LSI) == RCC_OSCILLATORTYPE_LSI)
 8000e46:	687b      	ldr	r3, [r7, #4]
 8000e48:	681b      	ldr	r3, [r3, #0]
 8000e4a:	f003 0308 	and.w	r3, r3, #8
 8000e4e:	2b00      	cmp	r3, #0
 8000e50:	d03a      	beq.n	8000ec8 <HAL_RCC_OscConfig+0x284>
  {
    /* Check the parameters */
    assert_param(IS_RCC_LSI(RCC_OscInitStruct->LSIState));

    /* Check the LSI State */
    if (RCC_OscInitStruct->LSIState != RCC_LSI_OFF)
 8000e52:	687b      	ldr	r3, [r7, #4]
 8000e54:	699b      	ldr	r3, [r3, #24]
 8000e56:	2b00      	cmp	r3, #0
 8000e58:	d019      	beq.n	8000e8e <HAL_RCC_OscConfig+0x24a>
    {
      /* Enable the Internal Low Speed oscillator (LSI). */
      __HAL_RCC_LSI_ENABLE();
 8000e5a:	4b17      	ldr	r3, [pc, #92]	; (8000eb8 <HAL_RCC_OscConfig+0x274>)
 8000e5c:	2201      	movs	r2, #1
 8000e5e:	601a      	str	r2, [r3, #0]

      /* Get Start Tick */
      tickstart = HAL_GetTick();
 8000e60:	f7ff fc28 	bl	80006b4 <HAL_GetTick>
 8000e64:	6138      	str	r0, [r7, #16]

      /* Wait till LSI is ready */
      while (__HAL_RCC_GET_FLAG(RCC_FLAG_LSIRDY) == RESET)
 8000e66:	e008      	b.n	8000e7a <HAL_RCC_OscConfig+0x236>
      {
        if ((HAL_GetTick() - tickstart) > LSI_TIMEOUT_VALUE)
 8000e68:	f7ff fc24 	bl	80006b4 <HAL_GetTick>
 8000e6c:	4602      	mov	r2, r0
 8000e6e:	693b      	ldr	r3, [r7, #16]
 8000e70:	1ad3      	subs	r3, r2, r3
 8000e72:	2b02      	cmp	r3, #2
 8000e74:	d901      	bls.n	8000e7a <HAL_RCC_OscConfig+0x236>
        {
          return HAL_TIMEOUT;
 8000e76:	2303      	movs	r3, #3
 8000e78:	e160      	b.n	800113c <HAL_RCC_OscConfig+0x4f8>
      while (__HAL_RCC_GET_FLAG(RCC_FLAG_LSIRDY) == RESET)
 8000e7a:	4b0d      	ldr	r3, [pc, #52]	; (8000eb0 <HAL_RCC_OscConfig+0x26c>)
 8000e7c:	6a5b      	ldr	r3, [r3, #36]	; 0x24
 8000e7e:	f003 0302 	and.w	r3, r3, #2
 8000e82:	2b00      	cmp	r3, #0
 8000e84:	d0f0      	beq.n	8000e68 <HAL_RCC_OscConfig+0x224>
        }
      }
      /*  To have a fully stabilized clock in the specified range, a software delay of 1ms
          should be added.*/
      RCC_Delay(1);
 8000e86:	2001      	movs	r0, #1
 8000e88:	f000 fa9c 	bl	80013c4 <RCC_Delay>
 8000e8c:	e01c      	b.n	8000ec8 <HAL_RCC_OscConfig+0x284>
    }
    else
    {
      /* Disable the Internal Low Speed oscillator (LSI). */
      __HAL_RCC_LSI_DISABLE();
 8000e8e:	4b0a      	ldr	r3, [pc, #40]	; (8000eb8 <HAL_RCC_OscConfig+0x274>)
 8000e90:	2200      	movs	r2, #0
 8000e92:	601a      	str	r2, [r3, #0]

      /* Get Start Tick */
      tickstart = HAL_GetTick();
 8000e94:	f7ff fc0e 	bl	80006b4 <HAL_GetTick>
 8000e98:	6138      	str	r0, [r7, #16]

      /* Wait till LSI is disabled */
      while (__HAL_RCC_GET_FLAG(RCC_FLAG_LSIRDY) != RESET)
 8000e9a:	e00f      	b.n	8000ebc <HAL_RCC_OscConfig+0x278>
      {
        if ((HAL_GetTick() - tickstart) > LSI_TIMEOUT_VALUE)
 8000e9c:	f7ff fc0a 	bl	80006b4 <HAL_GetTick>
 8000ea0:	4602      	mov	r2, r0
 8000ea2:	693b      	ldr	r3, [r7, #16]
 8000ea4:	1ad3      	subs	r3, r2, r3
 8000ea6:	2b02      	cmp	r3, #2
 8000ea8:	d908      	bls.n	8000ebc <HAL_RCC_OscConfig+0x278>
        {
          return HAL_TIMEOUT;
 8000eaa:	2303      	movs	r3, #3
 8000eac:	e146      	b.n	800113c <HAL_RCC_OscConfig+0x4f8>
 8000eae:	bf00      	nop
 8000eb0:	40021000 	.word	0x40021000
 8000eb4:	42420000 	.word	0x42420000
 8000eb8:	42420480 	.word	0x42420480
      while (__HAL_RCC_GET_FLAG(RCC_FLAG_LSIRDY) != RESET)
 8000ebc:	4b92      	ldr	r3, [pc, #584]	; (8001108 <HAL_RCC_OscConfig+0x4c4>)
 8000ebe:	6a5b      	ldr	r3, [r3, #36]	; 0x24
 8000ec0:	f003 0302 	and.w	r3, r3, #2
 8000ec4:	2b00      	cmp	r3, #0
 8000ec6:	d1e9      	bne.n	8000e9c <HAL_RCC_OscConfig+0x258>
        }
      }
    }
  }
  /*------------------------------ LSE Configuration -------------------------*/
  if (((RCC_OscInitStruct->OscillatorType) & RCC_OSCILLATORTYPE_LSE) == RCC_OSCILLATORTYPE_LSE)
 8000ec8:	687b      	ldr	r3, [r7, #4]
 8000eca:	681b      	ldr	r3, [r3, #0]
 8000ecc:	f003 0304 	and.w	r3, r3, #4
 8000ed0:	2b00      	cmp	r3, #0
 8000ed2:	f000 80a6 	beq.w	8001022 <HAL_RCC_OscConfig+0x3de>
  {
    FlagStatus       pwrclkchanged = RESET;
 8000ed6:	2300      	movs	r3, #0
 8000ed8:	75fb      	strb	r3, [r7, #23]
    /* Check the parameters */
    assert_param(IS_RCC_LSE(RCC_OscInitStruct->LSEState));

    /* Update LSE configuration in Backup Domain control register    */
    /* Requires to enable write access to Backup Domain of necessary */
    if (__HAL_RCC_PWR_IS_CLK_DISABLED())
 8000eda:	4b8b      	ldr	r3, [pc, #556]	; (8001108 <HAL_RCC_OscConfig+0x4c4>)
 8000edc:	69db      	ldr	r3, [r3, #28]
 8000ede:	f003 5380 	and.w	r3, r3, #268435456	; 0x10000000
 8000ee2:	2b00      	cmp	r3, #0
 8000ee4:	d10d      	bne.n	8000f02 <HAL_RCC_OscConfig+0x2be>
    {
      __HAL_RCC_PWR_CLK_ENABLE();
 8000ee6:	4b88      	ldr	r3, [pc, #544]	; (8001108 <HAL_RCC_OscConfig+0x4c4>)
 8000ee8:	69db      	ldr	r3, [r3, #28]
 8000eea:	4a87      	ldr	r2, [pc, #540]	; (8001108 <HAL_RCC_OscConfig+0x4c4>)
 8000eec:	f043 5380 	orr.w	r3, r3, #268435456	; 0x10000000
 8000ef0:	61d3      	str	r3, [r2, #28]
 8000ef2:	4b85      	ldr	r3, [pc, #532]	; (8001108 <HAL_RCC_OscConfig+0x4c4>)
 8000ef4:	69db      	ldr	r3, [r3, #28]
 8000ef6:	f003 5380 	and.w	r3, r3, #268435456	; 0x10000000
 8000efa:	60bb      	str	r3, [r7, #8]
 8000efc:	68bb      	ldr	r3, [r7, #8]
      pwrclkchanged = SET;
 8000efe:	2301      	movs	r3, #1
 8000f00:	75fb      	strb	r3, [r7, #23]
    }

    if (HAL_IS_BIT_CLR(PWR->CR, PWR_CR_DBP))
 8000f02:	4b82      	ldr	r3, [pc, #520]	; (800110c <HAL_RCC_OscConfig+0x4c8>)
 8000f04:	681b      	ldr	r3, [r3, #0]
 8000f06:	f403 7380 	and.w	r3, r3, #256	; 0x100
 8000f0a:	2b00      	cmp	r3, #0
 8000f0c:	d118      	bne.n	8000f40 <HAL_RCC_OscConfig+0x2fc>
    {
      /* Enable write access to Backup domain */
      SET_BIT(PWR->CR, PWR_CR_DBP);
 8000f0e:	4b7f      	ldr	r3, [pc, #508]	; (800110c <HAL_RCC_OscConfig+0x4c8>)
 8000f10:	681b      	ldr	r3, [r3, #0]
 8000f12:	4a7e      	ldr	r2, [pc, #504]	; (800110c <HAL_RCC_OscConfig+0x4c8>)
 8000f14:	f443 7380 	orr.w	r3, r3, #256	; 0x100
 8000f18:	6013      	str	r3, [r2, #0]

      /* Wait for Backup domain Write protection disable */
      tickstart = HAL_GetTick();
 8000f1a:	f7ff fbcb 	bl	80006b4 <HAL_GetTick>
 8000f1e:	6138      	str	r0, [r7, #16]

      while (HAL_IS_BIT_CLR(PWR->CR, PWR_CR_DBP))
 8000f20:	e008      	b.n	8000f34 <HAL_RCC_OscConfig+0x2f0>
      {
        if ((HAL_GetTick() - tickstart) > RCC_DBP_TIMEOUT_VALUE)
 8000f22:	f7ff fbc7 	bl	80006b4 <HAL_GetTick>
 8000f26:	4602      	mov	r2, r0
 8000f28:	693b      	ldr	r3, [r7, #16]
 8000f2a:	1ad3      	subs	r3, r2, r3
 8000f2c:	2b64      	cmp	r3, #100	; 0x64
 8000f2e:	d901      	bls.n	8000f34 <HAL_RCC_OscConfig+0x2f0>
        {
          return HAL_TIMEOUT;
 8000f30:	2303      	movs	r3, #3
 8000f32:	e103      	b.n	800113c <HAL_RCC_OscConfig+0x4f8>
      while (HAL_IS_BIT_CLR(PWR->CR, PWR_CR_DBP))
 8000f34:	4b75      	ldr	r3, [pc, #468]	; (800110c <HAL_RCC_OscConfig+0x4c8>)
 8000f36:	681b      	ldr	r3, [r3, #0]
 8000f38:	f403 7380 	and.w	r3, r3, #256	; 0x100
 8000f3c:	2b00      	cmp	r3, #0
 8000f3e:	d0f0      	beq.n	8000f22 <HAL_RCC_OscConfig+0x2de>
        }
      }
    }

    /* Set the new LSE configuration -----------------------------------------*/
    __HAL_RCC_LSE_CONFIG(RCC_OscInitStruct->LSEState);
 8000f40:	687b      	ldr	r3, [r7, #4]
 8000f42:	68db      	ldr	r3, [r3, #12]
 8000f44:	2b01      	cmp	r3, #1
 8000f46:	d106      	bne.n	8000f56 <HAL_RCC_OscConfig+0x312>
 8000f48:	4b6f      	ldr	r3, [pc, #444]	; (8001108 <HAL_RCC_OscConfig+0x4c4>)
 8000f4a:	6a1b      	ldr	r3, [r3, #32]
 8000f4c:	4a6e      	ldr	r2, [pc, #440]	; (8001108 <HAL_RCC_OscConfig+0x4c4>)
 8000f4e:	f043 0301 	orr.w	r3, r3, #1
 8000f52:	6213      	str	r3, [r2, #32]
 8000f54:	e02d      	b.n	8000fb2 <HAL_RCC_OscConfig+0x36e>
 8000f56:	687b      	ldr	r3, [r7, #4]
 8000f58:	68db      	ldr	r3, [r3, #12]
 8000f5a:	2b00      	cmp	r3, #0
 8000f5c:	d10c      	bne.n	8000f78 <HAL_RCC_OscConfig+0x334>
 8000f5e:	4b6a      	ldr	r3, [pc, #424]	; (8001108 <HAL_RCC_OscConfig+0x4c4>)
 8000f60:	6a1b      	ldr	r3, [r3, #32]
 8000f62:	4a69      	ldr	r2, [pc, #420]	; (8001108 <HAL_RCC_OscConfig+0x4c4>)
 8000f64:	f023 0301 	bic.w	r3, r3, #1
 8000f68:	6213      	str	r3, [r2, #32]
 8000f6a:	4b67      	ldr	r3, [pc, #412]	; (8001108 <HAL_RCC_OscConfig+0x4c4>)
 8000f6c:	6a1b      	ldr	r3, [r3, #32]
 8000f6e:	4a66      	ldr	r2, [pc, #408]	; (8001108 <HAL_RCC_OscConfig+0x4c4>)
 8000f70:	f023 0304 	bic.w	r3, r3, #4
 8000f74:	6213      	str	r3, [r2, #32]
 8000f76:	e01c      	b.n	8000fb2 <HAL_RCC_OscConfig+0x36e>
 8000f78:	687b      	ldr	r3, [r7, #4]
 8000f7a:	68db      	ldr	r3, [r3, #12]
 8000f7c:	2b05      	cmp	r3, #5
 8000f7e:	d10c      	bne.n	8000f9a <HAL_RCC_OscConfig+0x356>
 8000f80:	4b61      	ldr	r3, [pc, #388]	; (8001108 <HAL_RCC_OscConfig+0x4c4>)
 8000f82:	6a1b      	ldr	r3, [r3, #32]
 8000f84:	4a60      	ldr	r2, [pc, #384]	; (8001108 <HAL_RCC_OscConfig+0x4c4>)
 8000f86:	f043 0304 	orr.w	r3, r3, #4
 8000f8a:	6213      	str	r3, [r2, #32]
 8000f8c:	4b5e      	ldr	r3, [pc, #376]	; (8001108 <HAL_RCC_OscConfig+0x4c4>)
 8000f8e:	6a1b      	ldr	r3, [r3, #32]
 8000f90:	4a5d      	ldr	r2, [pc, #372]	; (8001108 <HAL_RCC_OscConfig+0x4c4>)
 8000f92:	f043 0301 	orr.w	r3, r3, #1
 8000f96:	6213      	str	r3, [r2, #32]
 8000f98:	e00b      	b.n	8000fb2 <HAL_RCC_OscConfig+0x36e>
 8000f9a:	4b5b      	ldr	r3, [pc, #364]	; (8001108 <HAL_RCC_OscConfig+0x4c4>)
 8000f9c:	6a1b      	ldr	r3, [r3, #32]
 8000f9e:	4a5a      	ldr	r2, [pc, #360]	; (8001108 <HAL_RCC_OscConfig+0x4c4>)
 8000fa0:	f023 0301 	bic.w	r3, r3, #1
 8000fa4:	6213      	str	r3, [r2, #32]
 8000fa6:	4b58      	ldr	r3, [pc, #352]	; (8001108 <HAL_RCC_OscConfig+0x4c4>)
 8000fa8:	6a1b      	ldr	r3, [r3, #32]
 8000faa:	4a57      	ldr	r2, [pc, #348]	; (8001108 <HAL_RCC_OscConfig+0x4c4>)
 8000fac:	f023 0304 	bic.w	r3, r3, #4
 8000fb0:	6213      	str	r3, [r2, #32]
    /* Check the LSE State */
    if (RCC_OscInitStruct->LSEState != RCC_LSE_OFF)
 8000fb2:	687b      	ldr	r3, [r7, #4]
 8000fb4:	68db      	ldr	r3, [r3, #12]
 8000fb6:	2b00      	cmp	r3, #0
 8000fb8:	d015      	beq.n	8000fe6 <HAL_RCC_OscConfig+0x3a2>
    {
      /* Get Start Tick */
      tickstart = HAL_GetTick();
 8000fba:	f7ff fb7b 	bl	80006b4 <HAL_GetTick>
 8000fbe:	6138      	str	r0, [r7, #16]

      /* Wait till LSE is ready */
      while (__HAL_RCC_GET_FLAG(RCC_FLAG_LSERDY) == RESET)
 8000fc0:	e00a      	b.n	8000fd8 <HAL_RCC_OscConfig+0x394>
      {
        if ((HAL_GetTick() - tickstart) > RCC_LSE_TIMEOUT_VALUE)
 8000fc2:	f7ff fb77 	bl	80006b4 <HAL_GetTick>
 8000fc6:	4602      	mov	r2, r0
 8000fc8:	693b      	ldr	r3, [r7, #16]
 8000fca:	1ad3      	subs	r3, r2, r3
 8000fcc:	f241 3288 	movw	r2, #5000	; 0x1388
 8000fd0:	4293      	cmp	r3, r2
 8000fd2:	d901      	bls.n	8000fd8 <HAL_RCC_OscConfig+0x394>
        {
          return HAL_TIMEOUT;
 8000fd4:	2303      	movs	r3, #3
 8000fd6:	e0b1      	b.n	800113c <HAL_RCC_OscConfig+0x4f8>
      while (__HAL_RCC_GET_FLAG(RCC_FLAG_LSERDY) == RESET)
 8000fd8:	4b4b      	ldr	r3, [pc, #300]	; (8001108 <HAL_RCC_OscConfig+0x4c4>)
 8000fda:	6a1b      	ldr	r3, [r3, #32]
 8000fdc:	f003 0302 	and.w	r3, r3, #2
 8000fe0:	2b00      	cmp	r3, #0
 8000fe2:	d0ee      	beq.n	8000fc2 <HAL_RCC_OscConfig+0x37e>
 8000fe4:	e014      	b.n	8001010 <HAL_RCC_OscConfig+0x3cc>
      }
    }
    else
    {
      /* Get Start Tick */
      tickstart = HAL_GetTick();
 8000fe6:	f7ff fb65 	bl	80006b4 <HAL_GetTick>
 8000fea:	6138      	str	r0, [r7, #16]

      /* Wait till LSE is disabled */
      while (__HAL_RCC_GET_FLAG(RCC_FLAG_LSERDY) != RESET)
 8000fec:	e00a      	b.n	8001004 <HAL_RCC_OscConfig+0x3c0>
      {
        if ((HAL_GetTick() - tickstart) > RCC_LSE_TIMEOUT_VALUE)
 8000fee:	f7ff fb61 	bl	80006b4 <HAL_GetTick>
 8000ff2:	4602      	mov	r2, r0
 8000ff4:	693b      	ldr	r3, [r7, #16]
 8000ff6:	1ad3      	subs	r3, r2, r3
 8000ff8:	f241 3288 	movw	r2, #5000	; 0x1388
 8000ffc:	4293      	cmp	r3, r2
 8000ffe:	d901      	bls.n	8001004 <HAL_RCC_OscConfig+0x3c0>
        {
          return HAL_TIMEOUT;
 8001000:	2303      	movs	r3, #3
 8001002:	e09b      	b.n	800113c <HAL_RCC_OscConfig+0x4f8>
      while (__HAL_RCC_GET_FLAG(RCC_FLAG_LSERDY) != RESET)
 8001004:	4b40      	ldr	r3, [pc, #256]	; (8001108 <HAL_RCC_OscConfig+0x4c4>)
 8001006:	6a1b      	ldr	r3, [r3, #32]
 8001008:	f003 0302 	and.w	r3, r3, #2
 800100c:	2b00      	cmp	r3, #0
 800100e:	d1ee      	bne.n	8000fee <HAL_RCC_OscConfig+0x3aa>
        }
      }
    }

    /* Require to disable power clock if necessary */
    if (pwrclkchanged == SET)
 8001010:	7dfb      	ldrb	r3, [r7, #23]
 8001012:	2b01      	cmp	r3, #1
 8001014:	d105      	bne.n	8001022 <HAL_RCC_OscConfig+0x3de>
    {
      __HAL_RCC_PWR_CLK_DISABLE();
 8001016:	4b3c      	ldr	r3, [pc, #240]	; (8001108 <HAL_RCC_OscConfig+0x4c4>)
 8001018:	69db      	ldr	r3, [r3, #28]
 800101a:	4a3b      	ldr	r2, [pc, #236]	; (8001108 <HAL_RCC_OscConfig+0x4c4>)
 800101c:	f023 5380 	bic.w	r3, r3, #268435456	; 0x10000000
 8001020:	61d3      	str	r3, [r2, #28]

#endif /* RCC_CR_PLL2ON */
  /*-------------------------------- PLL Configuration -----------------------*/
  /* Check the parameters */
  assert_param(IS_RCC_PLL(RCC_OscInitStruct->PLL.PLLState));
  if ((RCC_OscInitStruct->PLL.PLLState) != RCC_PLL_NONE)
 8001022:	687b      	ldr	r3, [r7, #4]
 8001024:	69db      	ldr	r3, [r3, #28]
 8001026:	2b00      	cmp	r3, #0
 8001028:	f000 8087 	beq.w	800113a <HAL_RCC_OscConfig+0x4f6>
  {
    /* Check if the PLL is used as system clock or not */
    if (__HAL_RCC_GET_SYSCLK_SOURCE() != RCC_SYSCLKSOURCE_STATUS_PLLCLK)
 800102c:	4b36      	ldr	r3, [pc, #216]	; (8001108 <HAL_RCC_OscConfig+0x4c4>)
 800102e:	685b      	ldr	r3, [r3, #4]
 8001030:	f003 030c 	and.w	r3, r3, #12
 8001034:	2b08      	cmp	r3, #8
 8001036:	d061      	beq.n	80010fc <HAL_RCC_OscConfig+0x4b8>
    {
      if ((RCC_OscInitStruct->PLL.PLLState) == RCC_PLL_ON)
 8001038:	687b      	ldr	r3, [r7, #4]
 800103a:	69db      	ldr	r3, [r3, #28]
 800103c:	2b02      	cmp	r3, #2
 800103e:	d146      	bne.n	80010ce <HAL_RCC_OscConfig+0x48a>
        /* Check the parameters */
        assert_param(IS_RCC_PLLSOURCE(RCC_OscInitStruct->PLL.PLLSource));
        assert_param(IS_RCC_PLL_MUL(RCC_OscInitStruct->PLL.PLLMUL));

        /* Disable the main PLL. */
        __HAL_RCC_PLL_DISABLE();
 8001040:	4b33      	ldr	r3, [pc, #204]	; (8001110 <HAL_RCC_OscConfig+0x4cc>)
 8001042:	2200      	movs	r2, #0
 8001044:	601a      	str	r2, [r3, #0]

        /* Get Start Tick */
        tickstart = HAL_GetTick();
 8001046:	f7ff fb35 	bl	80006b4 <HAL_GetTick>
 800104a:	6138      	str	r0, [r7, #16]

        /* Wait till PLL is disabled */
        while (__HAL_RCC_GET_FLAG(RCC_FLAG_PLLRDY)  != RESET)
 800104c:	e008      	b.n	8001060 <HAL_RCC_OscConfig+0x41c>
        {
          if ((HAL_GetTick() - tickstart) > PLL_TIMEOUT_VALUE)
 800104e:	f7ff fb31 	bl	80006b4 <HAL_GetTick>
 8001052:	4602      	mov	r2, r0
 8001054:	693b      	ldr	r3, [r7, #16]
 8001056:	1ad3      	subs	r3, r2, r3
 8001058:	2b02      	cmp	r3, #2
 800105a:	d901      	bls.n	8001060 <HAL_RCC_OscConfig+0x41c>
          {
            return HAL_TIMEOUT;
 800105c:	2303      	movs	r3, #3
 800105e:	e06d      	b.n	800113c <HAL_RCC_OscConfig+0x4f8>
        while (__HAL_RCC_GET_FLAG(RCC_FLAG_PLLRDY)  != RESET)
 8001060:	4b29      	ldr	r3, [pc, #164]	; (8001108 <HAL_RCC_OscConfig+0x4c4>)
 8001062:	681b      	ldr	r3, [r3, #0]
 8001064:	f003 7300 	and.w	r3, r3, #33554432	; 0x2000000
 8001068:	2b00      	cmp	r3, #0
 800106a:	d1f0      	bne.n	800104e <HAL_RCC_OscConfig+0x40a>
          }
        }

        /* Configure the HSE prediv factor --------------------------------*/
        /* It can be written only when the PLL is disabled. Not used in PLL source is different than HSE */
        if (RCC_OscInitStruct->PLL.PLLSource == RCC_PLLSOURCE_HSE)
 800106c:	687b      	ldr	r3, [r7, #4]
 800106e:	6a1b      	ldr	r3, [r3, #32]
 8001070:	f5b3 3f80 	cmp.w	r3, #65536	; 0x10000
 8001074:	d108      	bne.n	8001088 <HAL_RCC_OscConfig+0x444>
          /* Set PREDIV1 source */
          SET_BIT(RCC->CFGR2, RCC_OscInitStruct->Prediv1Source);
#endif /* RCC_CFGR2_PREDIV1SRC */

          /* Set PREDIV1 Value */
          __HAL_RCC_HSE_PREDIV_CONFIG(RCC_OscInitStruct->HSEPredivValue);
 8001076:	4b24      	ldr	r3, [pc, #144]	; (8001108 <HAL_RCC_OscConfig+0x4c4>)
 8001078:	685b      	ldr	r3, [r3, #4]
 800107a:	f423 3200 	bic.w	r2, r3, #131072	; 0x20000
 800107e:	687b      	ldr	r3, [r7, #4]
 8001080:	689b      	ldr	r3, [r3, #8]
 8001082:	4921      	ldr	r1, [pc, #132]	; (8001108 <HAL_RCC_OscConfig+0x4c4>)
 8001084:	4313      	orrs	r3, r2
 8001086:	604b      	str	r3, [r1, #4]
        }

        /* Configure the main PLL clock source and multiplication factors. */
        __HAL_RCC_PLL_CONFIG(RCC_OscInitStruct->PLL.PLLSource,
 8001088:	4b1f      	ldr	r3, [pc, #124]	; (8001108 <HAL_RCC_OscConfig+0x4c4>)
 800108a:	685b      	ldr	r3, [r3, #4]
 800108c:	f423 1274 	bic.w	r2, r3, #3997696	; 0x3d0000
 8001090:	687b      	ldr	r3, [r7, #4]
 8001092:	6a19      	ldr	r1, [r3, #32]
 8001094:	687b      	ldr	r3, [r7, #4]
 8001096:	6a5b      	ldr	r3, [r3, #36]	; 0x24
 8001098:	430b      	orrs	r3, r1
 800109a:	491b      	ldr	r1, [pc, #108]	; (8001108 <HAL_RCC_OscConfig+0x4c4>)
 800109c:	4313      	orrs	r3, r2
 800109e:	604b      	str	r3, [r1, #4]
                             RCC_OscInitStruct->PLL.PLLMUL);
        /* Enable the main PLL. */
        __HAL_RCC_PLL_ENABLE();
 80010a0:	4b1b      	ldr	r3, [pc, #108]	; (8001110 <HAL_RCC_OscConfig+0x4cc>)
 80010a2:	2201      	movs	r2, #1
 80010a4:	601a      	str	r2, [r3, #0]

        /* Get Start Tick */
        tickstart = HAL_GetTick();
 80010a6:	f7ff fb05 	bl	80006b4 <HAL_GetTick>
 80010aa:	6138      	str	r0, [r7, #16]

        /* Wait till PLL is ready */
        while (__HAL_RCC_GET_FLAG(RCC_FLAG_PLLRDY)  == RESET)
 80010ac:	e008      	b.n	80010c0 <HAL_RCC_OscConfig+0x47c>
        {
          if ((HAL_GetTick() - tickstart) > PLL_TIMEOUT_VALUE)
 80010ae:	f7ff fb01 	bl	80006b4 <HAL_GetTick>
 80010b2:	4602      	mov	r2, r0
 80010b4:	693b      	ldr	r3, [r7, #16]
 80010b6:	1ad3      	subs	r3, r2, r3
 80010b8:	2b02      	cmp	r3, #2
 80010ba:	d901      	bls.n	80010c0 <HAL_RCC_OscConfig+0x47c>
          {
            return HAL_TIMEOUT;
 80010bc:	2303      	movs	r3, #3
 80010be:	e03d      	b.n	800113c <HAL_RCC_OscConfig+0x4f8>
        while (__HAL_RCC_GET_FLAG(RCC_FLAG_PLLRDY)  == RESET)
 80010c0:	4b11      	ldr	r3, [pc, #68]	; (8001108 <HAL_RCC_OscConfig+0x4c4>)
 80010c2:	681b      	ldr	r3, [r3, #0]
 80010c4:	f003 7300 	and.w	r3, r3, #33554432	; 0x2000000
 80010c8:	2b00      	cmp	r3, #0
 80010ca:	d0f0      	beq.n	80010ae <HAL_RCC_OscConfig+0x46a>
 80010cc:	e035      	b.n	800113a <HAL_RCC_OscConfig+0x4f6>
        }
      }
      else
      {
        /* Disable the main PLL. */
        __HAL_RCC_PLL_DISABLE();
 80010ce:	4b10      	ldr	r3, [pc, #64]	; (8001110 <HAL_RCC_OscConfig+0x4cc>)
 80010d0:	2200      	movs	r2, #0
 80010d2:	601a      	str	r2, [r3, #0]

        /* Get Start Tick */
        tickstart = HAL_GetTick();
 80010d4:	f7ff faee 	bl	80006b4 <HAL_GetTick>
 80010d8:	6138      	str	r0, [r7, #16]

        /* Wait till PLL is disabled */
        while (__HAL_RCC_GET_FLAG(RCC_FLAG_PLLRDY)  != RESET)
 80010da:	e008      	b.n	80010ee <HAL_RCC_OscConfig+0x4aa>
        {
          if ((HAL_GetTick() - tickstart) > PLL_TIMEOUT_VALUE)
 80010dc:	f7ff faea 	bl	80006b4 <HAL_GetTick>
 80010e0:	4602      	mov	r2, r0
 80010e2:	693b      	ldr	r3, [r7, #16]
 80010e4:	1ad3      	subs	r3, r2, r3
 80010e6:	2b02      	cmp	r3, #2
 80010e8:	d901      	bls.n	80010ee <HAL_RCC_OscConfig+0x4aa>
          {
            return HAL_TIMEOUT;
 80010ea:	2303      	movs	r3, #3
 80010ec:	e026      	b.n	800113c <HAL_RCC_OscConfig+0x4f8>
        while (__HAL_RCC_GET_FLAG(RCC_FLAG_PLLRDY)  != RESET)
 80010ee:	4b06      	ldr	r3, [pc, #24]	; (8001108 <HAL_RCC_OscConfig+0x4c4>)
 80010f0:	681b      	ldr	r3, [r3, #0]
 80010f2:	f003 7300 	and.w	r3, r3, #33554432	; 0x2000000
 80010f6:	2b00      	cmp	r3, #0
 80010f8:	d1f0      	bne.n	80010dc <HAL_RCC_OscConfig+0x498>
 80010fa:	e01e      	b.n	800113a <HAL_RCC_OscConfig+0x4f6>
      }
    }
    else
    {
      /* Check if there is a request to disable the PLL used as System clock source */
      if ((RCC_OscInitStruct->PLL.PLLState) == RCC_PLL_OFF)
 80010fc:	687b      	ldr	r3, [r7, #4]
 80010fe:	69db      	ldr	r3, [r3, #28]
 8001100:	2b01      	cmp	r3, #1
 8001102:	d107      	bne.n	8001114 <HAL_RCC_OscConfig+0x4d0>
      {
        return HAL_ERROR;
 8001104:	2301      	movs	r3, #1
 8001106:	e019      	b.n	800113c <HAL_RCC_OscConfig+0x4f8>
 8001108:	40021000 	.word	0x40021000
 800110c:	40007000 	.word	0x40007000
 8001110:	42420060 	.word	0x42420060
      }
      else
      {
        /* Do not return HAL_ERROR if request repeats the current configuration */
        pll_config = RCC->CFGR;
 8001114:	4b0b      	ldr	r3, [pc, #44]	; (8001144 <HAL_RCC_OscConfig+0x500>)
 8001116:	685b      	ldr	r3, [r3, #4]
 8001118:	60fb      	str	r3, [r7, #12]
        if ((READ_BIT(pll_config, RCC_CFGR_PLLSRC) != RCC_OscInitStruct->PLL.PLLSource) ||
 800111a:	68fb      	ldr	r3, [r7, #12]
 800111c:	f403 3280 	and.w	r2, r3, #65536	; 0x10000
 8001120:	687b      	ldr	r3, [r7, #4]
 8001122:	6a1b      	ldr	r3, [r3, #32]
 8001124:	429a      	cmp	r2, r3
 8001126:	d106      	bne.n	8001136 <HAL_RCC_OscConfig+0x4f2>
            (READ_BIT(pll_config, RCC_CFGR_PLLMULL) != RCC_OscInitStruct->PLL.PLLMUL))
 8001128:	68fb      	ldr	r3, [r7, #12]
 800112a:	f403 1270 	and.w	r2, r3, #3932160	; 0x3c0000
 800112e:	687b      	ldr	r3, [r7, #4]
 8001130:	6a5b      	ldr	r3, [r3, #36]	; 0x24
        if ((READ_BIT(pll_config, RCC_CFGR_PLLSRC) != RCC_OscInitStruct->PLL.PLLSource) ||
 8001132:	429a      	cmp	r2, r3
 8001134:	d001      	beq.n	800113a <HAL_RCC_OscConfig+0x4f6>
        {
          return HAL_ERROR;
 8001136:	2301      	movs	r3, #1
 8001138:	e000      	b.n	800113c <HAL_RCC_OscConfig+0x4f8>
        }
      }
    }
  }

  return HAL_OK;
 800113a:	2300      	movs	r3, #0
}
 800113c:	4618      	mov	r0, r3
 800113e:	3718      	adds	r7, #24
 8001140:	46bd      	mov	sp, r7
 8001142:	bd80      	pop	{r7, pc}
 8001144:	40021000 	.word	0x40021000

08001148 <HAL_RCC_ClockConfig>:
  *         You can use @ref HAL_RCC_GetClockConfig() function to know which clock is
  *         currently used as system clock source.
  * @retval HAL status
  */
HAL_StatusTypeDef HAL_RCC_ClockConfig(RCC_ClkInitTypeDef  *RCC_ClkInitStruct, uint32_t FLatency)
{
 8001148:	b580      	push	{r7, lr}
 800114a:	b084      	sub	sp, #16
 800114c:	af00      	add	r7, sp, #0
 800114e:	6078      	str	r0, [r7, #4]
 8001150:	6039      	str	r1, [r7, #0]
  uint32_t tickstart;

  /* Check Null pointer */
  if (RCC_ClkInitStruct == NULL)
 8001152:	687b      	ldr	r3, [r7, #4]
 8001154:	2b00      	cmp	r3, #0
 8001156:	d101      	bne.n	800115c <HAL_RCC_ClockConfig+0x14>
  {
    return HAL_ERROR;
 8001158:	2301      	movs	r3, #1
 800115a:	e0d0      	b.n	80012fe <HAL_RCC_ClockConfig+0x1b6>
  must be correctly programmed according to the frequency of the CPU clock
    (HCLK) of the device. */

#if defined(FLASH_ACR_LATENCY)
  /* Increasing the number of wait states because of higher CPU frequency */
  if (FLatency > __HAL_FLASH_GET_LATENCY())
 800115c:	4b6a      	ldr	r3, [pc, #424]	; (8001308 <HAL_RCC_ClockConfig+0x1c0>)
 800115e:	681b      	ldr	r3, [r3, #0]
 8001160:	f003 0307 	and.w	r3, r3, #7
 8001164:	683a      	ldr	r2, [r7, #0]
 8001166:	429a      	cmp	r2, r3
 8001168:	d910      	bls.n	800118c <HAL_RCC_ClockConfig+0x44>
  {
    /* Program the new number of wait states to the LATENCY bits in the FLASH_ACR register */
    __HAL_FLASH_SET_LATENCY(FLatency);
 800116a:	4b67      	ldr	r3, [pc, #412]	; (8001308 <HAL_RCC_ClockConfig+0x1c0>)
 800116c:	681b      	ldr	r3, [r3, #0]
 800116e:	f023 0207 	bic.w	r2, r3, #7
 8001172:	4965      	ldr	r1, [pc, #404]	; (8001308 <HAL_RCC_ClockConfig+0x1c0>)
 8001174:	683b      	ldr	r3, [r7, #0]
 8001176:	4313      	orrs	r3, r2
 8001178:	600b      	str	r3, [r1, #0]

    /* Check that the new number of wait states is taken into account to access the Flash
    memory by reading the FLASH_ACR register */
    if (__HAL_FLASH_GET_LATENCY() != FLatency)
 800117a:	4b63      	ldr	r3, [pc, #396]	; (8001308 <HAL_RCC_ClockConfig+0x1c0>)
 800117c:	681b      	ldr	r3, [r3, #0]
 800117e:	f003 0307 	and.w	r3, r3, #7
 8001182:	683a      	ldr	r2, [r7, #0]
 8001184:	429a      	cmp	r2, r3
 8001186:	d001      	beq.n	800118c <HAL_RCC_ClockConfig+0x44>
  {
    return HAL_ERROR;
 8001188:	2301      	movs	r3, #1
 800118a:	e0b8      	b.n	80012fe <HAL_RCC_ClockConfig+0x1b6>
  }
}

#endif /* FLASH_ACR_LATENCY */
/*-------------------------- HCLK Configuration --------------------------*/
if (((RCC_ClkInitStruct->ClockType) & RCC_CLOCKTYPE_HCLK) == RCC_CLOCKTYPE_HCLK)
 800118c:	687b      	ldr	r3, [r7, #4]
 800118e:	681b      	ldr	r3, [r3, #0]
 8001190:	f003 0302 	and.w	r3, r3, #2
 8001194:	2b00      	cmp	r3, #0
 8001196:	d020      	beq.n	80011da <HAL_RCC_ClockConfig+0x92>
  {
    /* Set the highest APBx dividers in order to ensure that we do not go through
    a non-spec phase whatever we decrease or increase HCLK. */
    if (((RCC_ClkInitStruct->ClockType) & RCC_CLOCKTYPE_PCLK1) == RCC_CLOCKTYPE_PCLK1)
 8001198:	687b      	ldr	r3, [r7, #4]
 800119a:	681b      	ldr	r3, [r3, #0]
 800119c:	f003 0304 	and.w	r3, r3, #4
 80011a0:	2b00      	cmp	r3, #0
 80011a2:	d005      	beq.n	80011b0 <HAL_RCC_ClockConfig+0x68>
    {
      MODIFY_REG(RCC->CFGR, RCC_CFGR_PPRE1, RCC_HCLK_DIV16);
 80011a4:	4b59      	ldr	r3, [pc, #356]	; (800130c <HAL_RCC_ClockConfig+0x1c4>)
 80011a6:	685b      	ldr	r3, [r3, #4]
 80011a8:	4a58      	ldr	r2, [pc, #352]	; (800130c <HAL_RCC_ClockConfig+0x1c4>)
 80011aa:	f443 63e0 	orr.w	r3, r3, #1792	; 0x700
 80011ae:	6053      	str	r3, [r2, #4]
    }

    if (((RCC_ClkInitStruct->ClockType) & RCC_CLOCKTYPE_PCLK2) == RCC_CLOCKTYPE_PCLK2)
 80011b0:	687b      	ldr	r3, [r7, #4]
 80011b2:	681b      	ldr	r3, [r3, #0]
 80011b4:	f003 0308 	and.w	r3, r3, #8
 80011b8:	2b00      	cmp	r3, #0
 80011ba:	d005      	beq.n	80011c8 <HAL_RCC_ClockConfig+0x80>
    {
      MODIFY_REG(RCC->CFGR, RCC_CFGR_PPRE2, (RCC_HCLK_DIV16 << 3));
 80011bc:	4b53      	ldr	r3, [pc, #332]	; (800130c <HAL_RCC_ClockConfig+0x1c4>)
 80011be:	685b      	ldr	r3, [r3, #4]
 80011c0:	4a52      	ldr	r2, [pc, #328]	; (800130c <HAL_RCC_ClockConfig+0x1c4>)
 80011c2:	f443 5360 	orr.w	r3, r3, #14336	; 0x3800
 80011c6:	6053      	str	r3, [r2, #4]
    }

    /* Set the new HCLK clock divider */
    assert_param(IS_RCC_HCLK(RCC_ClkInitStruct->AHBCLKDivider));
    MODIFY_REG(RCC->CFGR, RCC_CFGR_HPRE, RCC_ClkInitStruct->AHBCLKDivider);
 80011c8:	4b50      	ldr	r3, [pc, #320]	; (800130c <HAL_RCC_ClockConfig+0x1c4>)
 80011ca:	685b      	ldr	r3, [r3, #4]
 80011cc:	f023 02f0 	bic.w	r2, r3, #240	; 0xf0
 80011d0:	687b      	ldr	r3, [r7, #4]
 80011d2:	689b      	ldr	r3, [r3, #8]
 80011d4:	494d      	ldr	r1, [pc, #308]	; (800130c <HAL_RCC_ClockConfig+0x1c4>)
 80011d6:	4313      	orrs	r3, r2
 80011d8:	604b      	str	r3, [r1, #4]
  }

  /*------------------------- SYSCLK Configuration ---------------------------*/
  if (((RCC_ClkInitStruct->ClockType) & RCC_CLOCKTYPE_SYSCLK) == RCC_CLOCKTYPE_SYSCLK)
 80011da:	687b      	ldr	r3, [r7, #4]
 80011dc:	681b      	ldr	r3, [r3, #0]
 80011de:	f003 0301 	and.w	r3, r3, #1
 80011e2:	2b00      	cmp	r3, #0
 80011e4:	d040      	beq.n	8001268 <HAL_RCC_ClockConfig+0x120>
  {
    assert_param(IS_RCC_SYSCLKSOURCE(RCC_ClkInitStruct->SYSCLKSource));

    /* HSE is selected as System Clock Source */
    if (RCC_ClkInitStruct->SYSCLKSource == RCC_SYSCLKSOURCE_HSE)
 80011e6:	687b      	ldr	r3, [r7, #4]
 80011e8:	685b      	ldr	r3, [r3, #4]
 80011ea:	2b01      	cmp	r3, #1
 80011ec:	d107      	bne.n	80011fe <HAL_RCC_ClockConfig+0xb6>
    {
      /* Check the HSE ready flag */
      if (__HAL_RCC_GET_FLAG(RCC_FLAG_HSERDY) == RESET)
 80011ee:	4b47      	ldr	r3, [pc, #284]	; (800130c <HAL_RCC_ClockConfig+0x1c4>)
 80011f0:	681b      	ldr	r3, [r3, #0]
 80011f2:	f403 3300 	and.w	r3, r3, #131072	; 0x20000
 80011f6:	2b00      	cmp	r3, #0
 80011f8:	d115      	bne.n	8001226 <HAL_RCC_ClockConfig+0xde>
      {
        return HAL_ERROR;
 80011fa:	2301      	movs	r3, #1
 80011fc:	e07f      	b.n	80012fe <HAL_RCC_ClockConfig+0x1b6>
      }
    }
    /* PLL is selected as System Clock Source */
    else if (RCC_ClkInitStruct->SYSCLKSource == RCC_SYSCLKSOURCE_PLLCLK)
 80011fe:	687b      	ldr	r3, [r7, #4]
 8001200:	685b      	ldr	r3, [r3, #4]
 8001202:	2b02      	cmp	r3, #2
 8001204:	d107      	bne.n	8001216 <HAL_RCC_ClockConfig+0xce>
    {
      /* Check the PLL ready flag */
      if (__HAL_RCC_GET_FLAG(RCC_FLAG_PLLRDY) == RESET)
 8001206:	4b41      	ldr	r3, [pc, #260]	; (800130c <HAL_RCC_ClockConfig+0x1c4>)
 8001208:	681b      	ldr	r3, [r3, #0]
 800120a:	f003 7300 	and.w	r3, r3, #33554432	; 0x2000000
 800120e:	2b00      	cmp	r3, #0
 8001210:	d109      	bne.n	8001226 <HAL_RCC_ClockConfig+0xde>
      {
        return HAL_ERROR;
 8001212:	2301      	movs	r3, #1
 8001214:	e073      	b.n	80012fe <HAL_RCC_ClockConfig+0x1b6>
    }
    /* HSI is selected as System Clock Source */
    else
    {
      /* Check the HSI ready flag */
      if (__HAL_RCC_GET_FLAG(RCC_FLAG_HSIRDY) == RESET)
 8001216:	4b3d      	ldr	r3, [pc, #244]	; (800130c <HAL_RCC_ClockConfig+0x1c4>)
 8001218:	681b      	ldr	r3, [r3, #0]
 800121a:	f003 0302 	and.w	r3, r3, #2
 800121e:	2b00      	cmp	r3, #0
 8001220:	d101      	bne.n	8001226 <HAL_RCC_ClockConfig+0xde>
      {
        return HAL_ERROR;
 8001222:	2301      	movs	r3, #1
 8001224:	e06b      	b.n	80012fe <HAL_RCC_ClockConfig+0x1b6>
      }
    }
    __HAL_RCC_SYSCLK_CONFIG(RCC_ClkInitStruct->SYSCLKSource);
 8001226:	4b39      	ldr	r3, [pc, #228]	; (800130c <HAL_RCC_ClockConfig+0x1c4>)
 8001228:	685b      	ldr	r3, [r3, #4]
 800122a:	f023 0203 	bic.w	r2, r3, #3
 800122e:	687b      	ldr	r3, [r7, #4]
 8001230:	685b      	ldr	r3, [r3, #4]
 8001232:	4936      	ldr	r1, [pc, #216]	; (800130c <HAL_RCC_ClockConfig+0x1c4>)
 8001234:	4313      	orrs	r3, r2
 8001236:	604b      	str	r3, [r1, #4]

    /* Get Start Tick */
    tickstart = HAL_GetTick();
 8001238:	f7ff fa3c 	bl	80006b4 <HAL_GetTick>
 800123c:	60f8      	str	r0, [r7, #12]

    while (__HAL_RCC_GET_SYSCLK_SOURCE() != (RCC_ClkInitStruct->SYSCLKSource << RCC_CFGR_SWS_Pos))
 800123e:	e00a      	b.n	8001256 <HAL_RCC_ClockConfig+0x10e>
    {
      if ((HAL_GetTick() - tickstart) > CLOCKSWITCH_TIMEOUT_VALUE)
 8001240:	f7ff fa38 	bl	80006b4 <HAL_GetTick>
 8001244:	4602      	mov	r2, r0
 8001246:	68fb      	ldr	r3, [r7, #12]
 8001248:	1ad3      	subs	r3, r2, r3
 800124a:	f241 3288 	movw	r2, #5000	; 0x1388
 800124e:	4293      	cmp	r3, r2
 8001250:	d901      	bls.n	8001256 <HAL_RCC_ClockConfig+0x10e>
      {
        return HAL_TIMEOUT;
 8001252:	2303      	movs	r3, #3
 8001254:	e053      	b.n	80012fe <HAL_RCC_ClockConfig+0x1b6>
    while (__HAL_RCC_GET_SYSCLK_SOURCE() != (RCC_ClkInitStruct->SYSCLKSource << RCC_CFGR_SWS_Pos))
 8001256:	4b2d      	ldr	r3, [pc, #180]	; (800130c <HAL_RCC_ClockConfig+0x1c4>)
 8001258:	685b      	ldr	r3, [r3, #4]
 800125a:	f003 020c 	and.w	r2, r3, #12
 800125e:	687b      	ldr	r3, [r7, #4]
 8001260:	685b      	ldr	r3, [r3, #4]
 8001262:	009b      	lsls	r3, r3, #2
 8001264:	429a      	cmp	r2, r3
 8001266:	d1eb      	bne.n	8001240 <HAL_RCC_ClockConfig+0xf8>
    }
  }

#if defined(FLASH_ACR_LATENCY)
  /* Decreasing the number of wait states because of lower CPU frequency */
  if (FLatency < __HAL_FLASH_GET_LATENCY())
 8001268:	4b27      	ldr	r3, [pc, #156]	; (8001308 <HAL_RCC_ClockConfig+0x1c0>)
 800126a:	681b      	ldr	r3, [r3, #0]
 800126c:	f003 0307 	and.w	r3, r3, #7
 8001270:	683a      	ldr	r2, [r7, #0]
 8001272:	429a      	cmp	r2, r3
 8001274:	d210      	bcs.n	8001298 <HAL_RCC_ClockConfig+0x150>
  {
    /* Program the new number of wait states to the LATENCY bits in the FLASH_ACR register */
    __HAL_FLASH_SET_LATENCY(FLatency);
 8001276:	4b24      	ldr	r3, [pc, #144]	; (8001308 <HAL_RCC_ClockConfig+0x1c0>)
 8001278:	681b      	ldr	r3, [r3, #0]
 800127a:	f023 0207 	bic.w	r2, r3, #7
 800127e:	4922      	ldr	r1, [pc, #136]	; (8001308 <HAL_RCC_ClockConfig+0x1c0>)
 8001280:	683b      	ldr	r3, [r7, #0]
 8001282:	4313      	orrs	r3, r2
 8001284:	600b      	str	r3, [r1, #0]

    /* Check that the new number of wait states is taken into account to access the Flash
    memory by reading the FLASH_ACR register */
    if (__HAL_FLASH_GET_LATENCY() != FLatency)
 8001286:	4b20      	ldr	r3, [pc, #128]	; (8001308 <HAL_RCC_ClockConfig+0x1c0>)
 8001288:	681b      	ldr	r3, [r3, #0]
 800128a:	f003 0307 	and.w	r3, r3, #7
 800128e:	683a      	ldr	r2, [r7, #0]
 8001290:	429a      	cmp	r2, r3
 8001292:	d001      	beq.n	8001298 <HAL_RCC_ClockConfig+0x150>
  {
    return HAL_ERROR;
 8001294:	2301      	movs	r3, #1
 8001296:	e032      	b.n	80012fe <HAL_RCC_ClockConfig+0x1b6>
  }
}
#endif /* FLASH_ACR_LATENCY */

/*-------------------------- PCLK1 Configuration ---------------------------*/
if (((RCC_ClkInitStruct->ClockType) & RCC_CLOCKTYPE_PCLK1) == RCC_CLOCKTYPE_PCLK1)
 8001298:	687b      	ldr	r3, [r7, #4]
 800129a:	681b      	ldr	r3, [r3, #0]
 800129c:	f003 0304 	and.w	r3, r3, #4
 80012a0:	2b00      	cmp	r3, #0
 80012a2:	d008      	beq.n	80012b6 <HAL_RCC_ClockConfig+0x16e>
  {
    assert_param(IS_RCC_PCLK(RCC_ClkInitStruct->APB1CLKDivider));
    MODIFY_REG(RCC->CFGR, RCC_CFGR_PPRE1, RCC_ClkInitStruct->APB1CLKDivider);
 80012a4:	4b19      	ldr	r3, [pc, #100]	; (800130c <HAL_RCC_ClockConfig+0x1c4>)
 80012a6:	685b      	ldr	r3, [r3, #4]
 80012a8:	f423 62e0 	bic.w	r2, r3, #1792	; 0x700
 80012ac:	687b      	ldr	r3, [r7, #4]
 80012ae:	68db      	ldr	r3, [r3, #12]
 80012b0:	4916      	ldr	r1, [pc, #88]	; (800130c <HAL_RCC_ClockConfig+0x1c4>)
 80012b2:	4313      	orrs	r3, r2
 80012b4:	604b      	str	r3, [r1, #4]
  }

  /*-------------------------- PCLK2 Configuration ---------------------------*/
  if (((RCC_ClkInitStruct->ClockType) & RCC_CLOCKTYPE_PCLK2) == RCC_CLOCKTYPE_PCLK2)
 80012b6:	687b      	ldr	r3, [r7, #4]
 80012b8:	681b      	ldr	r3, [r3, #0]
 80012ba:	f003 0308 	and.w	r3, r3, #8
 80012be:	2b00      	cmp	r3, #0
 80012c0:	d009      	beq.n	80012d6 <HAL_RCC_ClockConfig+0x18e>
  {
    assert_param(IS_RCC_PCLK(RCC_ClkInitStruct->APB2CLKDivider));
    MODIFY_REG(RCC->CFGR, RCC_CFGR_PPRE2, ((RCC_ClkInitStruct->APB2CLKDivider) << 3));
 80012c2:	4b12      	ldr	r3, [pc, #72]	; (800130c <HAL_RCC_ClockConfig+0x1c4>)
 80012c4:	685b      	ldr	r3, [r3, #4]
 80012c6:	f423 5260 	bic.w	r2, r3, #14336	; 0x3800
 80012ca:	687b      	ldr	r3, [r7, #4]
 80012cc:	691b      	ldr	r3, [r3, #16]
 80012ce:	00db      	lsls	r3, r3, #3
 80012d0:	490e      	ldr	r1, [pc, #56]	; (800130c <HAL_RCC_ClockConfig+0x1c4>)
 80012d2:	4313      	orrs	r3, r2
 80012d4:	604b      	str	r3, [r1, #4]
  }

  /* Update the SystemCoreClock global variable */
  SystemCoreClock = HAL_RCC_GetSysClockFreq() >> AHBPrescTable[(RCC->CFGR & RCC_CFGR_HPRE) >> RCC_CFGR_HPRE_Pos];
 80012d6:	f000 f821 	bl	800131c <HAL_RCC_GetSysClockFreq>
 80012da:	4602      	mov	r2, r0
 80012dc:	4b0b      	ldr	r3, [pc, #44]	; (800130c <HAL_RCC_ClockConfig+0x1c4>)
 80012de:	685b      	ldr	r3, [r3, #4]
 80012e0:	091b      	lsrs	r3, r3, #4
 80012e2:	f003 030f 	and.w	r3, r3, #15
 80012e6:	490a      	ldr	r1, [pc, #40]	; (8001310 <HAL_RCC_ClockConfig+0x1c8>)
 80012e8:	5ccb      	ldrb	r3, [r1, r3]
 80012ea:	fa22 f303 	lsr.w	r3, r2, r3
 80012ee:	4a09      	ldr	r2, [pc, #36]	; (8001314 <HAL_RCC_ClockConfig+0x1cc>)
 80012f0:	6013      	str	r3, [r2, #0]

  /* Configure the source of time base considering new system clocks settings*/
  HAL_InitTick(uwTickPrio);
 80012f2:	4b09      	ldr	r3, [pc, #36]	; (8001318 <HAL_RCC_ClockConfig+0x1d0>)
 80012f4:	681b      	ldr	r3, [r3, #0]
 80012f6:	4618      	mov	r0, r3
 80012f8:	f7ff f99a 	bl	8000630 <HAL_InitTick>

  return HAL_OK;
 80012fc:	2300      	movs	r3, #0
}
 80012fe:	4618      	mov	r0, r3
 8001300:	3710      	adds	r7, #16
 8001302:	46bd      	mov	sp, r7
 8001304:	bd80      	pop	{r7, pc}
 8001306:	bf00      	nop
 8001308:	40022000 	.word	0x40022000
 800130c:	40021000 	.word	0x40021000
 8001310:	080019e0 	.word	0x080019e0
 8001314:	20000000 	.word	0x20000000
 8001318:	20000004 	.word	0x20000004

0800131c <HAL_RCC_GetSysClockFreq>:
  *         right SYSCLK value. Otherwise, any configuration based on this function will be incorrect.
  *
  * @retval SYSCLK frequency
  */
uint32_t HAL_RCC_GetSysClockFreq(void)
{
 800131c:	b480      	push	{r7}
 800131e:	b087      	sub	sp, #28
 8001320:	af00      	add	r7, sp, #0
#else
  static const uint8_t aPredivFactorTable[2U] = {1, 2};
#endif /*RCC_CFGR2_PREDIV1*/

#endif
  uint32_t tmpreg = 0U, prediv = 0U, pllclk = 0U, pllmul = 0U;
 8001322:	2300      	movs	r3, #0
 8001324:	60fb      	str	r3, [r7, #12]
 8001326:	2300      	movs	r3, #0
 8001328:	60bb      	str	r3, [r7, #8]
 800132a:	2300      	movs	r3, #0
 800132c:	617b      	str	r3, [r7, #20]
 800132e:	2300      	movs	r3, #0
 8001330:	607b      	str	r3, [r7, #4]
  uint32_t sysclockfreq = 0U;
 8001332:	2300      	movs	r3, #0
 8001334:	613b      	str	r3, [r7, #16]
#if defined(RCC_CFGR2_PREDIV1SRC)
  uint32_t prediv2 = 0U, pll2mul = 0U;
#endif /*RCC_CFGR2_PREDIV1SRC*/

  tmpreg = RCC->CFGR;
 8001336:	4b1e      	ldr	r3, [pc, #120]	; (80013b0 <HAL_RCC_GetSysClockFreq+0x94>)
 8001338:	685b      	ldr	r3, [r3, #4]
 800133a:	60fb      	str	r3, [r7, #12]

  /* Get SYSCLK source -------------------------------------------------------*/
  switch (tmpreg & RCC_CFGR_SWS)
 800133c:	68fb      	ldr	r3, [r7, #12]
 800133e:	f003 030c 	and.w	r3, r3, #12
 8001342:	2b04      	cmp	r3, #4
 8001344:	d002      	beq.n	800134c <HAL_RCC_GetSysClockFreq+0x30>
 8001346:	2b08      	cmp	r3, #8
 8001348:	d003      	beq.n	8001352 <HAL_RCC_GetSysClockFreq+0x36>
 800134a:	e027      	b.n	800139c <HAL_RCC_GetSysClockFreq+0x80>
  {
    case RCC_SYSCLKSOURCE_STATUS_HSE:  /* HSE used as system clock */
    {
      sysclockfreq = HSE_VALUE;
 800134c:	4b19      	ldr	r3, [pc, #100]	; (80013b4 <HAL_RCC_GetSysClockFreq+0x98>)
 800134e:	613b      	str	r3, [r7, #16]
      break;
 8001350:	e027      	b.n	80013a2 <HAL_RCC_GetSysClockFreq+0x86>
    }
    case RCC_SYSCLKSOURCE_STATUS_PLLCLK:  /* PLL used as system clock */
    {
      pllmul = aPLLMULFactorTable[(uint32_t)(tmpreg & RCC_CFGR_PLLMULL) >> RCC_CFGR_PLLMULL_Pos];
 8001352:	68fb      	ldr	r3, [r7, #12]
 8001354:	0c9b      	lsrs	r3, r3, #18
 8001356:	f003 030f 	and.w	r3, r3, #15
 800135a:	4a17      	ldr	r2, [pc, #92]	; (80013b8 <HAL_RCC_GetSysClockFreq+0x9c>)
 800135c:	5cd3      	ldrb	r3, [r2, r3]
 800135e:	607b      	str	r3, [r7, #4]
      if ((tmpreg & RCC_CFGR_PLLSRC) != RCC_PLLSOURCE_HSI_DIV2)
 8001360:	68fb      	ldr	r3, [r7, #12]
 8001362:	f403 3380 	and.w	r3, r3, #65536	; 0x10000
 8001366:	2b00      	cmp	r3, #0
 8001368:	d010      	beq.n	800138c <HAL_RCC_GetSysClockFreq+0x70>
      {
#if defined(RCC_CFGR2_PREDIV1)
        prediv = aPredivFactorTable[(uint32_t)(RCC->CFGR2 & RCC_CFGR2_PREDIV1) >> RCC_CFGR2_PREDIV1_Pos];
#else
        prediv = aPredivFactorTable[(uint32_t)(RCC->CFGR & RCC_CFGR_PLLXTPRE) >> RCC_CFGR_PLLXTPRE_Pos];
 800136a:	4b11      	ldr	r3, [pc, #68]	; (80013b0 <HAL_RCC_GetSysClockFreq+0x94>)
 800136c:	685b      	ldr	r3, [r3, #4]
 800136e:	0c5b      	lsrs	r3, r3, #17
 8001370:	f003 0301 	and.w	r3, r3, #1
 8001374:	4a11      	ldr	r2, [pc, #68]	; (80013bc <HAL_RCC_GetSysClockFreq+0xa0>)
 8001376:	5cd3      	ldrb	r3, [r2, r3]
 8001378:	60bb      	str	r3, [r7, #8]
        {
          pllclk = pllclk / 2;
        }
#else
        /* HSE used as PLL clock source : PLLCLK = HSE/PREDIV1 * PLLMUL */
        pllclk = (uint32_t)((HSE_VALUE  * pllmul) / prediv);
 800137a:	687b      	ldr	r3, [r7, #4]
 800137c:	4a0d      	ldr	r2, [pc, #52]	; (80013b4 <HAL_RCC_GetSysClockFreq+0x98>)
 800137e:	fb03 f202 	mul.w	r2, r3, r2
 8001382:	68bb      	ldr	r3, [r7, #8]
 8001384:	fbb2 f3f3 	udiv	r3, r2, r3
 8001388:	617b      	str	r3, [r7, #20]
 800138a:	e004      	b.n	8001396 <HAL_RCC_GetSysClockFreq+0x7a>
#endif /*RCC_CFGR2_PREDIV1SRC*/
      }
      else
      {
        /* HSI used as PLL clock source : PLLCLK = HSI/2 * PLLMUL */
        pllclk = (uint32_t)((HSI_VALUE >> 1) * pllmul);
 800138c:	687b      	ldr	r3, [r7, #4]
 800138e:	4a0c      	ldr	r2, [pc, #48]	; (80013c0 <HAL_RCC_GetSysClockFreq+0xa4>)
 8001390:	fb02 f303 	mul.w	r3, r2, r3
 8001394:	617b      	str	r3, [r7, #20]
      }
      sysclockfreq = pllclk;
 8001396:	697b      	ldr	r3, [r7, #20]
 8001398:	613b      	str	r3, [r7, #16]
      break;
 800139a:	e002      	b.n	80013a2 <HAL_RCC_GetSysClockFreq+0x86>
    }
    case RCC_SYSCLKSOURCE_STATUS_HSI:  /* HSI used as system clock source */
    default: /* HSI used as system clock */
    {
      sysclockfreq = HSI_VALUE;
 800139c:	4b05      	ldr	r3, [pc, #20]	; (80013b4 <HAL_RCC_GetSysClockFreq+0x98>)
 800139e:	613b      	str	r3, [r7, #16]
      break;
 80013a0:	bf00      	nop
    }
  }
  return sysclockfreq;
 80013a2:	693b      	ldr	r3, [r7, #16]
}
 80013a4:	4618      	mov	r0, r3
 80013a6:	371c      	adds	r7, #28
 80013a8:	46bd      	mov	sp, r7
 80013aa:	bc80      	pop	{r7}
 80013ac:	4770      	bx	lr
 80013ae:	bf00      	nop
 80013b0:	40021000 	.word	0x40021000
 80013b4:	007a1200 	.word	0x007a1200
 80013b8:	080019f0 	.word	0x080019f0
 80013bc:	08001a00 	.word	0x08001a00
 80013c0:	003d0900 	.word	0x003d0900

080013c4 <RCC_Delay>:
  * @brief  This function provides delay (in milliseconds) based on CPU cycles method.
  * @param  mdelay: specifies the delay time length, in milliseconds.
  * @retval None
  */
static void RCC_Delay(uint32_t mdelay)
{
 80013c4:	b480      	push	{r7}
 80013c6:	b085      	sub	sp, #20
 80013c8:	af00      	add	r7, sp, #0
 80013ca:	6078      	str	r0, [r7, #4]
  __IO uint32_t Delay = mdelay * (SystemCoreClock / 8U / 1000U);
 80013cc:	4b0a      	ldr	r3, [pc, #40]	; (80013f8 <RCC_Delay+0x34>)
 80013ce:	681b      	ldr	r3, [r3, #0]
 80013d0:	4a0a      	ldr	r2, [pc, #40]	; (80013fc <RCC_Delay+0x38>)
 80013d2:	fba2 2303 	umull	r2, r3, r2, r3
 80013d6:	0a5b      	lsrs	r3, r3, #9
 80013d8:	687a      	ldr	r2, [r7, #4]
 80013da:	fb02 f303 	mul.w	r3, r2, r3
 80013de:	60fb      	str	r3, [r7, #12]
  do
  {
    __NOP();
 80013e0:	bf00      	nop
  }
  while (Delay --);
 80013e2:	68fb      	ldr	r3, [r7, #12]
 80013e4:	1e5a      	subs	r2, r3, #1
 80013e6:	60fa      	str	r2, [r7, #12]
 80013e8:	2b00      	cmp	r3, #0
 80013ea:	d1f9      	bne.n	80013e0 <RCC_Delay+0x1c>
}
 80013ec:	bf00      	nop
 80013ee:	bf00      	nop
 80013f0:	3714      	adds	r7, #20
 80013f2:	46bd      	mov	sp, r7
 80013f4:	bc80      	pop	{r7}
 80013f6:	4770      	bx	lr
 80013f8:	20000000 	.word	0x20000000
 80013fc:	10624dd3 	.word	0x10624dd3

08001400 <HAL_TIM_Base_Init>:
  *         Ex: call @ref HAL_TIM_Base_DeInit() before HAL_TIM_Base_Init()
  * @param  htim TIM Base handle
  * @retval HAL status
  */
HAL_StatusTypeDef HAL_TIM_Base_Init(TIM_HandleTypeDef *htim)
{
 8001400:	b580      	push	{r7, lr}
 8001402:	b082      	sub	sp, #8
 8001404:	af00      	add	r7, sp, #0
 8001406:	6078      	str	r0, [r7, #4]
  /* Check the TIM handle allocation */
  if (htim == NULL)
 8001408:	687b      	ldr	r3, [r7, #4]
 800140a:	2b00      	cmp	r3, #0
 800140c:	d101      	bne.n	8001412 <HAL_TIM_Base_Init+0x12>
  {
    return HAL_ERROR;
 800140e:	2301      	movs	r3, #1
 8001410:	e041      	b.n	8001496 <HAL_TIM_Base_Init+0x96>
  assert_param(IS_TIM_COUNTER_MODE(htim->Init.CounterMode));
  assert_param(IS_TIM_CLOCKDIVISION_DIV(htim->Init.ClockDivision));
  assert_param(IS_TIM_PERIOD(htim->Init.Period));
  assert_param(IS_TIM_AUTORELOAD_PRELOAD(htim->Init.AutoReloadPreload));

  if (htim->State == HAL_TIM_STATE_RESET)
 8001412:	687b      	ldr	r3, [r7, #4]
 8001414:	f893 303d 	ldrb.w	r3, [r3, #61]	; 0x3d
 8001418:	b2db      	uxtb	r3, r3
 800141a:	2b00      	cmp	r3, #0
 800141c:	d106      	bne.n	800142c <HAL_TIM_Base_Init+0x2c>
  {
    /* Allocate lock resource and initialize it */
    htim->Lock = HAL_UNLOCKED;
 800141e:	687b      	ldr	r3, [r7, #4]
 8001420:	2200      	movs	r2, #0
 8001422:	f883 203c 	strb.w	r2, [r3, #60]	; 0x3c
    }
    /* Init the low level hardware : GPIO, CLOCK, NVIC */
    htim->Base_MspInitCallback(htim);
#else
    /* Init the low level hardware : GPIO, CLOCK, NVIC */
    HAL_TIM_Base_MspInit(htim);
 8001426:	6878      	ldr	r0, [r7, #4]
 8001428:	f7ff f87a 	bl	8000520 <HAL_TIM_Base_MspInit>
#endif /* USE_HAL_TIM_REGISTER_CALLBACKS */
  }

  /* Set the TIM state */
  htim->State = HAL_TIM_STATE_BUSY;
 800142c:	687b      	ldr	r3, [r7, #4]
 800142e:	2202      	movs	r2, #2
 8001430:	f883 203d 	strb.w	r2, [r3, #61]	; 0x3d

  /* Set the Time Base configuration */
  TIM_Base_SetConfig(htim->Instance, &htim->Init);
 8001434:	687b      	ldr	r3, [r7, #4]
 8001436:	681a      	ldr	r2, [r3, #0]
 8001438:	687b      	ldr	r3, [r7, #4]
 800143a:	3304      	adds	r3, #4
 800143c:	4619      	mov	r1, r3
 800143e:	4610      	mov	r0, r2
 8001440:	f000 f940 	bl	80016c4 <TIM_Base_SetConfig>

  /* Initialize the DMA burst operation state */
  htim->DMABurstState = HAL_DMA_BURST_STATE_READY;
 8001444:	687b      	ldr	r3, [r7, #4]
 8001446:	2201      	movs	r2, #1
 8001448:	f883 2046 	strb.w	r2, [r3, #70]	; 0x46

  /* Initialize the TIM channels state */
  TIM_CHANNEL_STATE_SET_ALL(htim, HAL_TIM_CHANNEL_STATE_READY);
 800144c:	687b      	ldr	r3, [r7, #4]
 800144e:	2201      	movs	r2, #1
 8001450:	f883 203e 	strb.w	r2, [r3, #62]	; 0x3e
 8001454:	687b      	ldr	r3, [r7, #4]
 8001456:	2201      	movs	r2, #1
 8001458:	f883 203f 	strb.w	r2, [r3, #63]	; 0x3f
 800145c:	687b      	ldr	r3, [r7, #4]
 800145e:	2201      	movs	r2, #1
 8001460:	f883 2040 	strb.w	r2, [r3, #64]	; 0x40
 8001464:	687b      	ldr	r3, [r7, #4]
 8001466:	2201      	movs	r2, #1
 8001468:	f883 2041 	strb.w	r2, [r3, #65]	; 0x41
  TIM_CHANNEL_N_STATE_SET_ALL(htim, HAL_TIM_CHANNEL_STATE_READY);
 800146c:	687b      	ldr	r3, [r7, #4]
 800146e:	2201      	movs	r2, #1
 8001470:	f883 2042 	strb.w	r2, [r3, #66]	; 0x42
 8001474:	687b      	ldr	r3, [r7, #4]
 8001476:	2201      	movs	r2, #1
 8001478:	f883 2043 	strb.w	r2, [r3, #67]	; 0x43
 800147c:	687b      	ldr	r3, [r7, #4]
 800147e:	2201      	movs	r2, #1
 8001480:	f883 2044 	strb.w	r2, [r3, #68]	; 0x44
 8001484:	687b      	ldr	r3, [r7, #4]
 8001486:	2201      	movs	r2, #1
 8001488:	f883 2045 	strb.w	r2, [r3, #69]	; 0x45

  /* Initialize the TIM state*/
  htim->State = HAL_TIM_STATE_READY;
 800148c:	687b      	ldr	r3, [r7, #4]
 800148e:	2201      	movs	r2, #1
 8001490:	f883 203d 	strb.w	r2, [r3, #61]	; 0x3d

  return HAL_OK;
 8001494:	2300      	movs	r3, #0
}
 8001496:	4618      	mov	r0, r3
 8001498:	3708      	adds	r7, #8
 800149a:	46bd      	mov	sp, r7
 800149c:	bd80      	pop	{r7, pc}
	...

080014a0 <HAL_TIM_Base_Start>:
  * @brief  Starts the TIM Base generation.
  * @param  htim TIM Base handle
  * @retval HAL status
  */
HAL_StatusTypeDef HAL_TIM_Base_Start(TIM_HandleTypeDef *htim)
{
 80014a0:	b480      	push	{r7}
 80014a2:	b085      	sub	sp, #20
 80014a4:	af00      	add	r7, sp, #0
 80014a6:	6078      	str	r0, [r7, #4]

  /* Check the parameters */
  assert_param(IS_TIM_INSTANCE(htim->Instance));

  /* Check the TIM state */
  if (htim->State != HAL_TIM_STATE_READY)
 80014a8:	687b      	ldr	r3, [r7, #4]
 80014aa:	f893 303d 	ldrb.w	r3, [r3, #61]	; 0x3d
 80014ae:	b2db      	uxtb	r3, r3
 80014b0:	2b01      	cmp	r3, #1
 80014b2:	d001      	beq.n	80014b8 <HAL_TIM_Base_Start+0x18>
  {
    return HAL_ERROR;
 80014b4:	2301      	movs	r3, #1
 80014b6:	e032      	b.n	800151e <HAL_TIM_Base_Start+0x7e>
  }

  /* Set the TIM state */
  htim->State = HAL_TIM_STATE_BUSY;
 80014b8:	687b      	ldr	r3, [r7, #4]
 80014ba:	2202      	movs	r2, #2
 80014bc:	f883 203d 	strb.w	r2, [r3, #61]	; 0x3d

  /* Enable the Peripheral, except in trigger mode where enable is automatically done with trigger */
  if (IS_TIM_SLAVE_INSTANCE(htim->Instance))
 80014c0:	687b      	ldr	r3, [r7, #4]
 80014c2:	681b      	ldr	r3, [r3, #0]
 80014c4:	4a18      	ldr	r2, [pc, #96]	; (8001528 <HAL_TIM_Base_Start+0x88>)
 80014c6:	4293      	cmp	r3, r2
 80014c8:	d00e      	beq.n	80014e8 <HAL_TIM_Base_Start+0x48>
 80014ca:	687b      	ldr	r3, [r7, #4]
 80014cc:	681b      	ldr	r3, [r3, #0]
 80014ce:	f1b3 4f80 	cmp.w	r3, #1073741824	; 0x40000000
 80014d2:	d009      	beq.n	80014e8 <HAL_TIM_Base_Start+0x48>
 80014d4:	687b      	ldr	r3, [r7, #4]
 80014d6:	681b      	ldr	r3, [r3, #0]
 80014d8:	4a14      	ldr	r2, [pc, #80]	; (800152c <HAL_TIM_Base_Start+0x8c>)
 80014da:	4293      	cmp	r3, r2
 80014dc:	d004      	beq.n	80014e8 <HAL_TIM_Base_Start+0x48>
 80014de:	687b      	ldr	r3, [r7, #4]
 80014e0:	681b      	ldr	r3, [r3, #0]
 80014e2:	4a13      	ldr	r2, [pc, #76]	; (8001530 <HAL_TIM_Base_Start+0x90>)
 80014e4:	4293      	cmp	r3, r2
 80014e6:	d111      	bne.n	800150c <HAL_TIM_Base_Start+0x6c>
  {
    tmpsmcr = htim->Instance->SMCR & TIM_SMCR_SMS;
 80014e8:	687b      	ldr	r3, [r7, #4]
 80014ea:	681b      	ldr	r3, [r3, #0]
 80014ec:	689b      	ldr	r3, [r3, #8]
 80014ee:	f003 0307 	and.w	r3, r3, #7
 80014f2:	60fb      	str	r3, [r7, #12]
    if (!IS_TIM_SLAVEMODE_TRIGGER_ENABLED(tmpsmcr))
 80014f4:	68fb      	ldr	r3, [r7, #12]
 80014f6:	2b06      	cmp	r3, #6
 80014f8:	d010      	beq.n	800151c <HAL_TIM_Base_Start+0x7c>
    {
      __HAL_TIM_ENABLE(htim);
 80014fa:	687b      	ldr	r3, [r7, #4]
 80014fc:	681b      	ldr	r3, [r3, #0]
 80014fe:	681a      	ldr	r2, [r3, #0]
 8001500:	687b      	ldr	r3, [r7, #4]
 8001502:	681b      	ldr	r3, [r3, #0]
 8001504:	f042 0201 	orr.w	r2, r2, #1
 8001508:	601a      	str	r2, [r3, #0]
    if (!IS_TIM_SLAVEMODE_TRIGGER_ENABLED(tmpsmcr))
 800150a:	e007      	b.n	800151c <HAL_TIM_Base_Start+0x7c>
    }
  }
  else
  {
    __HAL_TIM_ENABLE(htim);
 800150c:	687b      	ldr	r3, [r7, #4]
 800150e:	681b      	ldr	r3, [r3, #0]
 8001510:	681a      	ldr	r2, [r3, #0]
 8001512:	687b      	ldr	r3, [r7, #4]
 8001514:	681b      	ldr	r3, [r3, #0]
 8001516:	f042 0201 	orr.w	r2, r2, #1
 800151a:	601a      	str	r2, [r3, #0]
  }

  /* Return function status */
  return HAL_OK;
 800151c:	2300      	movs	r3, #0
}
 800151e:	4618      	mov	r0, r3
 8001520:	3714      	adds	r7, #20
 8001522:	46bd      	mov	sp, r7
 8001524:	bc80      	pop	{r7}
 8001526:	4770      	bx	lr
 8001528:	40012c00 	.word	0x40012c00
 800152c:	40000400 	.word	0x40000400
 8001530:	40000800 	.word	0x40000800

08001534 <HAL_TIM_ConfigClockSource>:
  * @param  sClockSourceConfig pointer to a TIM_ClockConfigTypeDef structure that
  *         contains the clock source information for the TIM peripheral.
  * @retval HAL status
  */
HAL_StatusTypeDef HAL_TIM_ConfigClockSource(TIM_HandleTypeDef *htim, const TIM_ClockConfigTypeDef *sClockSourceConfig)
{
 8001534:	b580      	push	{r7, lr}
 8001536:	b084      	sub	sp, #16
 8001538:	af00      	add	r7, sp, #0
 800153a:	6078      	str	r0, [r7, #4]
 800153c:	6039      	str	r1, [r7, #0]
  HAL_StatusTypeDef status = HAL_OK;
 800153e:	2300      	movs	r3, #0
 8001540:	73fb      	strb	r3, [r7, #15]
  uint32_t tmpsmcr;

  /* Process Locked */
  __HAL_LOCK(htim);
 8001542:	687b      	ldr	r3, [r7, #4]
 8001544:	f893 303c 	ldrb.w	r3, [r3, #60]	; 0x3c
 8001548:	2b01      	cmp	r3, #1
 800154a:	d101      	bne.n	8001550 <HAL_TIM_ConfigClockSource+0x1c>
 800154c:	2302      	movs	r3, #2
 800154e:	e0b4      	b.n	80016ba <HAL_TIM_ConfigClockSource+0x186>
 8001550:	687b      	ldr	r3, [r7, #4]
 8001552:	2201      	movs	r2, #1
 8001554:	f883 203c 	strb.w	r2, [r3, #60]	; 0x3c

  htim->State = HAL_TIM_STATE_BUSY;
 8001558:	687b      	ldr	r3, [r7, #4]
 800155a:	2202      	movs	r2, #2
 800155c:	f883 203d 	strb.w	r2, [r3, #61]	; 0x3d

  /* Check the parameters */
  assert_param(IS_TIM_CLOCKSOURCE(sClockSourceConfig->ClockSource));

  /* Reset the SMS, TS, ECE, ETPS and ETRF bits */
  tmpsmcr = htim->Instance->SMCR;
 8001560:	687b      	ldr	r3, [r7, #4]
 8001562:	681b      	ldr	r3, [r3, #0]
 8001564:	689b      	ldr	r3, [r3, #8]
 8001566:	60bb      	str	r3, [r7, #8]
  tmpsmcr &= ~(TIM_SMCR_SMS | TIM_SMCR_TS);
 8001568:	68bb      	ldr	r3, [r7, #8]
 800156a:	f023 0377 	bic.w	r3, r3, #119	; 0x77
 800156e:	60bb      	str	r3, [r7, #8]
  tmpsmcr &= ~(TIM_SMCR_ETF | TIM_SMCR_ETPS | TIM_SMCR_ECE | TIM_SMCR_ETP);
 8001570:	68bb      	ldr	r3, [r7, #8]
 8001572:	f423 437f 	bic.w	r3, r3, #65280	; 0xff00
 8001576:	60bb      	str	r3, [r7, #8]
  htim->Instance->SMCR = tmpsmcr;
 8001578:	687b      	ldr	r3, [r7, #4]
 800157a:	681b      	ldr	r3, [r3, #0]
 800157c:	68ba      	ldr	r2, [r7, #8]
 800157e:	609a      	str	r2, [r3, #8]

  switch (sClockSourceConfig->ClockSource)
 8001580:	683b      	ldr	r3, [r7, #0]
 8001582:	681b      	ldr	r3, [r3, #0]
 8001584:	f5b3 5f00 	cmp.w	r3, #8192	; 0x2000
 8001588:	d03e      	beq.n	8001608 <HAL_TIM_ConfigClockSource+0xd4>
 800158a:	f5b3 5f00 	cmp.w	r3, #8192	; 0x2000
 800158e:	f200 8087 	bhi.w	80016a0 <HAL_TIM_ConfigClockSource+0x16c>
 8001592:	f5b3 5f80 	cmp.w	r3, #4096	; 0x1000
 8001596:	f000 8086 	beq.w	80016a6 <HAL_TIM_ConfigClockSource+0x172>
 800159a:	f5b3 5f80 	cmp.w	r3, #4096	; 0x1000
 800159e:	d87f      	bhi.n	80016a0 <HAL_TIM_ConfigClockSource+0x16c>
 80015a0:	2b70      	cmp	r3, #112	; 0x70
 80015a2:	d01a      	beq.n	80015da <HAL_TIM_ConfigClockSource+0xa6>
 80015a4:	2b70      	cmp	r3, #112	; 0x70
 80015a6:	d87b      	bhi.n	80016a0 <HAL_TIM_ConfigClockSource+0x16c>
 80015a8:	2b60      	cmp	r3, #96	; 0x60
 80015aa:	d050      	beq.n	800164e <HAL_TIM_ConfigClockSource+0x11a>
 80015ac:	2b60      	cmp	r3, #96	; 0x60
 80015ae:	d877      	bhi.n	80016a0 <HAL_TIM_ConfigClockSource+0x16c>
 80015b0:	2b50      	cmp	r3, #80	; 0x50
 80015b2:	d03c      	beq.n	800162e <HAL_TIM_ConfigClockSource+0xfa>
 80015b4:	2b50      	cmp	r3, #80	; 0x50
 80015b6:	d873      	bhi.n	80016a0 <HAL_TIM_ConfigClockSource+0x16c>
 80015b8:	2b40      	cmp	r3, #64	; 0x40
 80015ba:	d058      	beq.n	800166e <HAL_TIM_ConfigClockSource+0x13a>
 80015bc:	2b40      	cmp	r3, #64	; 0x40
 80015be:	d86f      	bhi.n	80016a0 <HAL_TIM_ConfigClockSource+0x16c>
 80015c0:	2b30      	cmp	r3, #48	; 0x30
 80015c2:	d064      	beq.n	800168e <HAL_TIM_ConfigClockSource+0x15a>
 80015c4:	2b30      	cmp	r3, #48	; 0x30
 80015c6:	d86b      	bhi.n	80016a0 <HAL_TIM_ConfigClockSource+0x16c>
 80015c8:	2b20      	cmp	r3, #32
 80015ca:	d060      	beq.n	800168e <HAL_TIM_ConfigClockSource+0x15a>
 80015cc:	2b20      	cmp	r3, #32
 80015ce:	d867      	bhi.n	80016a0 <HAL_TIM_ConfigClockSource+0x16c>
 80015d0:	2b00      	cmp	r3, #0
 80015d2:	d05c      	beq.n	800168e <HAL_TIM_ConfigClockSource+0x15a>
 80015d4:	2b10      	cmp	r3, #16
 80015d6:	d05a      	beq.n	800168e <HAL_TIM_ConfigClockSource+0x15a>
 80015d8:	e062      	b.n	80016a0 <HAL_TIM_ConfigClockSource+0x16c>
      assert_param(IS_TIM_CLOCKPRESCALER(sClockSourceConfig->ClockPrescaler));
      assert_param(IS_TIM_CLOCKPOLARITY(sClockSourceConfig->ClockPolarity));
      assert_param(IS_TIM_CLOCKFILTER(sClockSourceConfig->ClockFilter));

      /* Configure the ETR Clock source */
      TIM_ETR_SetConfig(htim->Instance,
 80015da:	687b      	ldr	r3, [r7, #4]
 80015dc:	6818      	ldr	r0, [r3, #0]
 80015de:	683b      	ldr	r3, [r7, #0]
 80015e0:	6899      	ldr	r1, [r3, #8]
 80015e2:	683b      	ldr	r3, [r7, #0]
 80015e4:	685a      	ldr	r2, [r3, #4]
 80015e6:	683b      	ldr	r3, [r7, #0]
 80015e8:	68db      	ldr	r3, [r3, #12]
 80015ea:	f000 f944 	bl	8001876 <TIM_ETR_SetConfig>
                        sClockSourceConfig->ClockPrescaler,
                        sClockSourceConfig->ClockPolarity,
                        sClockSourceConfig->ClockFilter);

      /* Select the External clock mode1 and the ETRF trigger */
      tmpsmcr = htim->Instance->SMCR;
 80015ee:	687b      	ldr	r3, [r7, #4]
 80015f0:	681b      	ldr	r3, [r3, #0]
 80015f2:	689b      	ldr	r3, [r3, #8]
 80015f4:	60bb      	str	r3, [r7, #8]
      tmpsmcr |= (TIM_SLAVEMODE_EXTERNAL1 | TIM_CLOCKSOURCE_ETRMODE1);
 80015f6:	68bb      	ldr	r3, [r7, #8]
 80015f8:	f043 0377 	orr.w	r3, r3, #119	; 0x77
 80015fc:	60bb      	str	r3, [r7, #8]
      /* Write to TIMx SMCR */
      htim->Instance->SMCR = tmpsmcr;
 80015fe:	687b      	ldr	r3, [r7, #4]
 8001600:	681b      	ldr	r3, [r3, #0]
 8001602:	68ba      	ldr	r2, [r7, #8]
 8001604:	609a      	str	r2, [r3, #8]
      break;
 8001606:	e04f      	b.n	80016a8 <HAL_TIM_ConfigClockSource+0x174>
      assert_param(IS_TIM_CLOCKPRESCALER(sClockSourceConfig->ClockPrescaler));
      assert_param(IS_TIM_CLOCKPOLARITY(sClockSourceConfig->ClockPolarity));
      assert_param(IS_TIM_CLOCKFILTER(sClockSourceConfig->ClockFilter));

      /* Configure the ETR Clock source */
      TIM_ETR_SetConfig(htim->Instance,
 8001608:	687b      	ldr	r3, [r7, #4]
 800160a:	6818      	ldr	r0, [r3, #0]
 800160c:	683b      	ldr	r3, [r7, #0]
 800160e:	6899      	ldr	r1, [r3, #8]
 8001610:	683b      	ldr	r3, [r7, #0]
 8001612:	685a      	ldr	r2, [r3, #4]
 8001614:	683b      	ldr	r3, [r7, #0]
 8001616:	68db      	ldr	r3, [r3, #12]
 8001618:	f000 f92d 	bl	8001876 <TIM_ETR_SetConfig>
                        sClockSourceConfig->ClockPrescaler,
                        sClockSourceConfig->ClockPolarity,
                        sClockSourceConfig->ClockFilter);
      /* Enable the External clock mode2 */
      htim->Instance->SMCR |= TIM_SMCR_ECE;
 800161c:	687b      	ldr	r3, [r7, #4]
 800161e:	681b      	ldr	r3, [r3, #0]
 8001620:	689a      	ldr	r2, [r3, #8]
 8001622:	687b      	ldr	r3, [r7, #4]
 8001624:	681b      	ldr	r3, [r3, #0]
 8001626:	f442 4280 	orr.w	r2, r2, #16384	; 0x4000
 800162a:	609a      	str	r2, [r3, #8]
      break;
 800162c:	e03c      	b.n	80016a8 <HAL_TIM_ConfigClockSource+0x174>

      /* Check TI1 input conditioning related parameters */
      assert_param(IS_TIM_CLOCKPOLARITY(sClockSourceConfig->ClockPolarity));
      assert_param(IS_TIM_CLOCKFILTER(sClockSourceConfig->ClockFilter));

      TIM_TI1_ConfigInputStage(htim->Instance,
 800162e:	687b      	ldr	r3, [r7, #4]
 8001630:	6818      	ldr	r0, [r3, #0]
 8001632:	683b      	ldr	r3, [r7, #0]
 8001634:	6859      	ldr	r1, [r3, #4]
 8001636:	683b      	ldr	r3, [r7, #0]
 8001638:	68db      	ldr	r3, [r3, #12]
 800163a:	461a      	mov	r2, r3
 800163c:	f000 f8a4 	bl	8001788 <TIM_TI1_ConfigInputStage>
                               sClockSourceConfig->ClockPolarity,
                               sClockSourceConfig->ClockFilter);
      TIM_ITRx_SetConfig(htim->Instance, TIM_CLOCKSOURCE_TI1);
 8001640:	687b      	ldr	r3, [r7, #4]
 8001642:	681b      	ldr	r3, [r3, #0]
 8001644:	2150      	movs	r1, #80	; 0x50
 8001646:	4618      	mov	r0, r3
 8001648:	f000 f8fb 	bl	8001842 <TIM_ITRx_SetConfig>
      break;
 800164c:	e02c      	b.n	80016a8 <HAL_TIM_ConfigClockSource+0x174>

      /* Check TI2 input conditioning related parameters */
      assert_param(IS_TIM_CLOCKPOLARITY(sClockSourceConfig->ClockPolarity));
      assert_param(IS_TIM_CLOCKFILTER(sClockSourceConfig->ClockFilter));

      TIM_TI2_ConfigInputStage(htim->Instance,
 800164e:	687b      	ldr	r3, [r7, #4]
 8001650:	6818      	ldr	r0, [r3, #0]
 8001652:	683b      	ldr	r3, [r7, #0]
 8001654:	6859      	ldr	r1, [r3, #4]
 8001656:	683b      	ldr	r3, [r7, #0]
 8001658:	68db      	ldr	r3, [r3, #12]
 800165a:	461a      	mov	r2, r3
 800165c:	f000 f8c2 	bl	80017e4 <TIM_TI2_ConfigInputStage>
                               sClockSourceConfig->ClockPolarity,
                               sClockSourceConfig->ClockFilter);
      TIM_ITRx_SetConfig(htim->Instance, TIM_CLOCKSOURCE_TI2);
 8001660:	687b      	ldr	r3, [r7, #4]
 8001662:	681b      	ldr	r3, [r3, #0]
 8001664:	2160      	movs	r1, #96	; 0x60
 8001666:	4618      	mov	r0, r3
 8001668:	f000 f8eb 	bl	8001842 <TIM_ITRx_SetConfig>
      break;
 800166c:	e01c      	b.n	80016a8 <HAL_TIM_ConfigClockSource+0x174>

      /* Check TI1 input conditioning related parameters */
      assert_param(IS_TIM_CLOCKPOLARITY(sClockSourceConfig->ClockPolarity));
      assert_param(IS_TIM_CLOCKFILTER(sClockSourceConfig->ClockFilter));

      TIM_TI1_ConfigInputStage(htim->Instance,
 800166e:	687b      	ldr	r3, [r7, #4]
 8001670:	6818      	ldr	r0, [r3, #0]
 8001672:	683b      	ldr	r3, [r7, #0]
 8001674:	6859      	ldr	r1, [r3, #4]
 8001676:	683b      	ldr	r3, [r7, #0]
 8001678:	68db      	ldr	r3, [r3, #12]
 800167a:	461a      	mov	r2, r3
 800167c:	f000 f884 	bl	8001788 <TIM_TI1_ConfigInputStage>
                               sClockSourceConfig->ClockPolarity,
                               sClockSourceConfig->ClockFilter);
      TIM_ITRx_SetConfig(htim->Instance, TIM_CLOCKSOURCE_TI1ED);
 8001680:	687b      	ldr	r3, [r7, #4]
 8001682:	681b      	ldr	r3, [r3, #0]
 8001684:	2140      	movs	r1, #64	; 0x40
 8001686:	4618      	mov	r0, r3
 8001688:	f000 f8db 	bl	8001842 <TIM_ITRx_SetConfig>
      break;
 800168c:	e00c      	b.n	80016a8 <HAL_TIM_ConfigClockSource+0x174>
    case TIM_CLOCKSOURCE_ITR3:
    {
      /* Check whether or not the timer instance supports internal trigger input */
      assert_param(IS_TIM_CLOCKSOURCE_ITRX_INSTANCE(htim->Instance));

      TIM_ITRx_SetConfig(htim->Instance, sClockSourceConfig->ClockSource);
 800168e:	687b      	ldr	r3, [r7, #4]
 8001690:	681a      	ldr	r2, [r3, #0]
 8001692:	683b      	ldr	r3, [r7, #0]
 8001694:	681b      	ldr	r3, [r3, #0]
 8001696:	4619      	mov	r1, r3
 8001698:	4610      	mov	r0, r2
 800169a:	f000 f8d2 	bl	8001842 <TIM_ITRx_SetConfig>
      break;
 800169e:	e003      	b.n	80016a8 <HAL_TIM_ConfigClockSource+0x174>
    }

    default:
      status = HAL_ERROR;
 80016a0:	2301      	movs	r3, #1
 80016a2:	73fb      	strb	r3, [r7, #15]
      break;
 80016a4:	e000      	b.n	80016a8 <HAL_TIM_ConfigClockSource+0x174>
      break;
 80016a6:	bf00      	nop
  }
  htim->State = HAL_TIM_STATE_READY;
 80016a8:	687b      	ldr	r3, [r7, #4]
 80016aa:	2201      	movs	r2, #1
 80016ac:	f883 203d 	strb.w	r2, [r3, #61]	; 0x3d

  __HAL_UNLOCK(htim);
 80016b0:	687b      	ldr	r3, [r7, #4]
 80016b2:	2200      	movs	r2, #0
 80016b4:	f883 203c 	strb.w	r2, [r3, #60]	; 0x3c

  return status;
 80016b8:	7bfb      	ldrb	r3, [r7, #15]
}
 80016ba:	4618      	mov	r0, r3
 80016bc:	3710      	adds	r7, #16
 80016be:	46bd      	mov	sp, r7
 80016c0:	bd80      	pop	{r7, pc}
	...

080016c4 <TIM_Base_SetConfig>:
  * @param  TIMx TIM peripheral
  * @param  Structure TIM Base configuration structure
  * @retval None
  */
void TIM_Base_SetConfig(TIM_TypeDef *TIMx, const TIM_Base_InitTypeDef *Structure)
{
 80016c4:	b480      	push	{r7}
 80016c6:	b085      	sub	sp, #20
 80016c8:	af00      	add	r7, sp, #0
 80016ca:	6078      	str	r0, [r7, #4]
 80016cc:	6039      	str	r1, [r7, #0]
  uint32_t tmpcr1;
  tmpcr1 = TIMx->CR1;
 80016ce:	687b      	ldr	r3, [r7, #4]
 80016d0:	681b      	ldr	r3, [r3, #0]
 80016d2:	60fb      	str	r3, [r7, #12]

  /* Set TIM Time Base Unit parameters ---------------------------------------*/
  if (IS_TIM_COUNTER_MODE_SELECT_INSTANCE(TIMx))
 80016d4:	687b      	ldr	r3, [r7, #4]
 80016d6:	4a29      	ldr	r2, [pc, #164]	; (800177c <TIM_Base_SetConfig+0xb8>)
 80016d8:	4293      	cmp	r3, r2
 80016da:	d00b      	beq.n	80016f4 <TIM_Base_SetConfig+0x30>
 80016dc:	687b      	ldr	r3, [r7, #4]
 80016de:	f1b3 4f80 	cmp.w	r3, #1073741824	; 0x40000000
 80016e2:	d007      	beq.n	80016f4 <TIM_Base_SetConfig+0x30>
 80016e4:	687b      	ldr	r3, [r7, #4]
 80016e6:	4a26      	ldr	r2, [pc, #152]	; (8001780 <TIM_Base_SetConfig+0xbc>)
 80016e8:	4293      	cmp	r3, r2
 80016ea:	d003      	beq.n	80016f4 <TIM_Base_SetConfig+0x30>
 80016ec:	687b      	ldr	r3, [r7, #4]
 80016ee:	4a25      	ldr	r2, [pc, #148]	; (8001784 <TIM_Base_SetConfig+0xc0>)
 80016f0:	4293      	cmp	r3, r2
 80016f2:	d108      	bne.n	8001706 <TIM_Base_SetConfig+0x42>
  {
    /* Select the Counter Mode */
    tmpcr1 &= ~(TIM_CR1_DIR | TIM_CR1_CMS);
 80016f4:	68fb      	ldr	r3, [r7, #12]
 80016f6:	f023 0370 	bic.w	r3, r3, #112	; 0x70
 80016fa:	60fb      	str	r3, [r7, #12]
    tmpcr1 |= Structure->CounterMode;
 80016fc:	683b      	ldr	r3, [r7, #0]
 80016fe:	685b      	ldr	r3, [r3, #4]
 8001700:	68fa      	ldr	r2, [r7, #12]
 8001702:	4313      	orrs	r3, r2
 8001704:	60fb      	str	r3, [r7, #12]
  }

  if (IS_TIM_CLOCK_DIVISION_INSTANCE(TIMx))
 8001706:	687b      	ldr	r3, [r7, #4]
 8001708:	4a1c      	ldr	r2, [pc, #112]	; (800177c <TIM_Base_SetConfig+0xb8>)
 800170a:	4293      	cmp	r3, r2
 800170c:	d00b      	beq.n	8001726 <TIM_Base_SetConfig+0x62>
 800170e:	687b      	ldr	r3, [r7, #4]
 8001710:	f1b3 4f80 	cmp.w	r3, #1073741824	; 0x40000000
 8001714:	d007      	beq.n	8001726 <TIM_Base_SetConfig+0x62>
 8001716:	687b      	ldr	r3, [r7, #4]
 8001718:	4a19      	ldr	r2, [pc, #100]	; (8001780 <TIM_Base_SetConfig+0xbc>)
 800171a:	4293      	cmp	r3, r2
 800171c:	d003      	beq.n	8001726 <TIM_Base_SetConfig+0x62>
 800171e:	687b      	ldr	r3, [r7, #4]
 8001720:	4a18      	ldr	r2, [pc, #96]	; (8001784 <TIM_Base_SetConfig+0xc0>)
 8001722:	4293      	cmp	r3, r2
 8001724:	d108      	bne.n	8001738 <TIM_Base_SetConfig+0x74>
  {
    /* Set the clock division */
    tmpcr1 &= ~TIM_CR1_CKD;
 8001726:	68fb      	ldr	r3, [r7, #12]
 8001728:	f423 7340 	bic.w	r3, r3, #768	; 0x300
 800172c:	60fb      	str	r3, [r7, #12]
    tmpcr1 |= (uint32_t)Structure->ClockDivision;
 800172e:	683b      	ldr	r3, [r7, #0]
 8001730:	68db      	ldr	r3, [r3, #12]
 8001732:	68fa      	ldr	r2, [r7, #12]
 8001734:	4313      	orrs	r3, r2
 8001736:	60fb      	str	r3, [r7, #12]
  }

  /* Set the auto-reload preload */
  MODIFY_REG(tmpcr1, TIM_CR1_ARPE, Structure->AutoReloadPreload);
 8001738:	68fb      	ldr	r3, [r7, #12]
 800173a:	f023 0280 	bic.w	r2, r3, #128	; 0x80
 800173e:	683b      	ldr	r3, [r7, #0]
 8001740:	695b      	ldr	r3, [r3, #20]
 8001742:	4313      	orrs	r3, r2
 8001744:	60fb      	str	r3, [r7, #12]

  TIMx->CR1 = tmpcr1;
 8001746:	687b      	ldr	r3, [r7, #4]
 8001748:	68fa      	ldr	r2, [r7, #12]
 800174a:	601a      	str	r2, [r3, #0]

  /* Set the Autoreload value */
  TIMx->ARR = (uint32_t)Structure->Period ;
 800174c:	683b      	ldr	r3, [r7, #0]
 800174e:	689a      	ldr	r2, [r3, #8]
 8001750:	687b      	ldr	r3, [r7, #4]
 8001752:	62da      	str	r2, [r3, #44]	; 0x2c

  /* Set the Prescaler value */
  TIMx->PSC = Structure->Prescaler;
 8001754:	683b      	ldr	r3, [r7, #0]
 8001756:	681a      	ldr	r2, [r3, #0]
 8001758:	687b      	ldr	r3, [r7, #4]
 800175a:	629a      	str	r2, [r3, #40]	; 0x28

  if (IS_TIM_REPETITION_COUNTER_INSTANCE(TIMx))
 800175c:	687b      	ldr	r3, [r7, #4]
 800175e:	4a07      	ldr	r2, [pc, #28]	; (800177c <TIM_Base_SetConfig+0xb8>)
 8001760:	4293      	cmp	r3, r2
 8001762:	d103      	bne.n	800176c <TIM_Base_SetConfig+0xa8>
  {
    /* Set the Repetition Counter value */
    TIMx->RCR = Structure->RepetitionCounter;
 8001764:	683b      	ldr	r3, [r7, #0]
 8001766:	691a      	ldr	r2, [r3, #16]
 8001768:	687b      	ldr	r3, [r7, #4]
 800176a:	631a      	str	r2, [r3, #48]	; 0x30
  }

  /* Generate an update event to reload the Prescaler
     and the repetition counter (only for advanced timer) value immediately */
  TIMx->EGR = TIM_EGR_UG;
 800176c:	687b      	ldr	r3, [r7, #4]
 800176e:	2201      	movs	r2, #1
 8001770:	615a      	str	r2, [r3, #20]
}
 8001772:	bf00      	nop
 8001774:	3714      	adds	r7, #20
 8001776:	46bd      	mov	sp, r7
 8001778:	bc80      	pop	{r7}
 800177a:	4770      	bx	lr
 800177c:	40012c00 	.word	0x40012c00
 8001780:	40000400 	.word	0x40000400
 8001784:	40000800 	.word	0x40000800

08001788 <TIM_TI1_ConfigInputStage>:
  * @param  TIM_ICFilter Specifies the Input Capture Filter.
  *          This parameter must be a value between 0x00 and 0x0F.
  * @retval None
  */
static void TIM_TI1_ConfigInputStage(TIM_TypeDef *TIMx, uint32_t TIM_ICPolarity, uint32_t TIM_ICFilter)
{
 8001788:	b480      	push	{r7}
 800178a:	b087      	sub	sp, #28
 800178c:	af00      	add	r7, sp, #0
 800178e:	60f8      	str	r0, [r7, #12]
 8001790:	60b9      	str	r1, [r7, #8]
 8001792:	607a      	str	r2, [r7, #4]
  uint32_t tmpccmr1;
  uint32_t tmpccer;

  /* Disable the Channel 1: Reset the CC1E Bit */
  tmpccer = TIMx->CCER;
 8001794:	68fb      	ldr	r3, [r7, #12]
 8001796:	6a1b      	ldr	r3, [r3, #32]
 8001798:	617b      	str	r3, [r7, #20]
  TIMx->CCER &= ~TIM_CCER_CC1E;
 800179a:	68fb      	ldr	r3, [r7, #12]
 800179c:	6a1b      	ldr	r3, [r3, #32]
 800179e:	f023 0201 	bic.w	r2, r3, #1
 80017a2:	68fb      	ldr	r3, [r7, #12]
 80017a4:	621a      	str	r2, [r3, #32]
  tmpccmr1 = TIMx->CCMR1;
 80017a6:	68fb      	ldr	r3, [r7, #12]
 80017a8:	699b      	ldr	r3, [r3, #24]
 80017aa:	613b      	str	r3, [r7, #16]

  /* Set the filter */
  tmpccmr1 &= ~TIM_CCMR1_IC1F;
 80017ac:	693b      	ldr	r3, [r7, #16]
 80017ae:	f023 03f0 	bic.w	r3, r3, #240	; 0xf0
 80017b2:	613b      	str	r3, [r7, #16]
  tmpccmr1 |= (TIM_ICFilter << 4U);
 80017b4:	687b      	ldr	r3, [r7, #4]
 80017b6:	011b      	lsls	r3, r3, #4
 80017b8:	693a      	ldr	r2, [r7, #16]
 80017ba:	4313      	orrs	r3, r2
 80017bc:	613b      	str	r3, [r7, #16]

  /* Select the Polarity and set the CC1E Bit */
  tmpccer &= ~(TIM_CCER_CC1P | TIM_CCER_CC1NP);
 80017be:	697b      	ldr	r3, [r7, #20]
 80017c0:	f023 030a 	bic.w	r3, r3, #10
 80017c4:	617b      	str	r3, [r7, #20]
  tmpccer |= TIM_ICPolarity;
 80017c6:	697a      	ldr	r2, [r7, #20]
 80017c8:	68bb      	ldr	r3, [r7, #8]
 80017ca:	4313      	orrs	r3, r2
 80017cc:	617b      	str	r3, [r7, #20]

  /* Write to TIMx CCMR1 and CCER registers */
  TIMx->CCMR1 = tmpccmr1;
 80017ce:	68fb      	ldr	r3, [r7, #12]
 80017d0:	693a      	ldr	r2, [r7, #16]
 80017d2:	619a      	str	r2, [r3, #24]
  TIMx->CCER = tmpccer;
 80017d4:	68fb      	ldr	r3, [r7, #12]
 80017d6:	697a      	ldr	r2, [r7, #20]
 80017d8:	621a      	str	r2, [r3, #32]
}
 80017da:	bf00      	nop
 80017dc:	371c      	adds	r7, #28
 80017de:	46bd      	mov	sp, r7
 80017e0:	bc80      	pop	{r7}
 80017e2:	4770      	bx	lr

080017e4 <TIM_TI2_ConfigInputStage>:
  * @param  TIM_ICFilter Specifies the Input Capture Filter.
  *          This parameter must be a value between 0x00 and 0x0F.
  * @retval None
  */
static void TIM_TI2_ConfigInputStage(TIM_TypeDef *TIMx, uint32_t TIM_ICPolarity, uint32_t TIM_ICFilter)
{
 80017e4:	b480      	push	{r7}
 80017e6:	b087      	sub	sp, #28
 80017e8:	af00      	add	r7, sp, #0
 80017ea:	60f8      	str	r0, [r7, #12]
 80017ec:	60b9      	str	r1, [r7, #8]
 80017ee:	607a      	str	r2, [r7, #4]
  uint32_t tmpccmr1;
  uint32_t tmpccer;

  /* Disable the Channel 2: Reset the CC2E Bit */
  tmpccer = TIMx->CCER;
 80017f0:	68fb      	ldr	r3, [r7, #12]
 80017f2:	6a1b      	ldr	r3, [r3, #32]
 80017f4:	617b      	str	r3, [r7, #20]
  TIMx->CCER &= ~TIM_CCER_CC2E;
 80017f6:	68fb      	ldr	r3, [r7, #12]
 80017f8:	6a1b      	ldr	r3, [r3, #32]
 80017fa:	f023 0210 	bic.w	r2, r3, #16
 80017fe:	68fb      	ldr	r3, [r7, #12]
 8001800:	621a      	str	r2, [r3, #32]
  tmpccmr1 = TIMx->CCMR1;
 8001802:	68fb      	ldr	r3, [r7, #12]
 8001804:	699b      	ldr	r3, [r3, #24]
 8001806:	613b      	str	r3, [r7, #16]

  /* Set the filter */
  tmpccmr1 &= ~TIM_CCMR1_IC2F;
 8001808:	693b      	ldr	r3, [r7, #16]
 800180a:	f423 4370 	bic.w	r3, r3, #61440	; 0xf000
 800180e:	613b      	str	r3, [r7, #16]
  tmpccmr1 |= (TIM_ICFilter << 12U);
 8001810:	687b      	ldr	r3, [r7, #4]
 8001812:	031b      	lsls	r3, r3, #12
 8001814:	693a      	ldr	r2, [r7, #16]
 8001816:	4313      	orrs	r3, r2
 8001818:	613b      	str	r3, [r7, #16]

  /* Select the Polarity and set the CC2E Bit */
  tmpccer &= ~(TIM_CCER_CC2P | TIM_CCER_CC2NP);
 800181a:	697b      	ldr	r3, [r7, #20]
 800181c:	f023 03a0 	bic.w	r3, r3, #160	; 0xa0
 8001820:	617b      	str	r3, [r7, #20]
  tmpccer |= (TIM_ICPolarity << 4U);
 8001822:	68bb      	ldr	r3, [r7, #8]
 8001824:	011b      	lsls	r3, r3, #4
 8001826:	697a      	ldr	r2, [r7, #20]
 8001828:	4313      	orrs	r3, r2
 800182a:	617b      	str	r3, [r7, #20]

  /* Write to TIMx CCMR1 and CCER registers */
  TIMx->CCMR1 = tmpccmr1 ;
 800182c:	68fb      	ldr	r3, [r7, #12]
 800182e:	693a      	ldr	r2, [r7, #16]
 8001830:	619a      	str	r2, [r3, #24]
  TIMx->CCER = tmpccer;
 8001832:	68fb      	ldr	r3, [r7, #12]
 8001834:	697a      	ldr	r2, [r7, #20]
 8001836:	621a      	str	r2, [r3, #32]
}
 8001838:	bf00      	nop
 800183a:	371c      	adds	r7, #28
 800183c:	46bd      	mov	sp, r7
 800183e:	bc80      	pop	{r7}
 8001840:	4770      	bx	lr

08001842 <TIM_ITRx_SetConfig>:
  *            @arg TIM_TS_TI2FP2: Filtered Timer Input 2
  *            @arg TIM_TS_ETRF: External Trigger input
  * @retval None
  */
static void TIM_ITRx_SetConfig(TIM_TypeDef *TIMx, uint32_t InputTriggerSource)
{
 8001842:	b480      	push	{r7}
 8001844:	b085      	sub	sp, #20
 8001846:	af00      	add	r7, sp, #0
 8001848:	6078      	str	r0, [r7, #4]
 800184a:	6039      	str	r1, [r7, #0]
  uint32_t tmpsmcr;

  /* Get the TIMx SMCR register value */
  tmpsmcr = TIMx->SMCR;
 800184c:	687b      	ldr	r3, [r7, #4]
 800184e:	689b      	ldr	r3, [r3, #8]
 8001850:	60fb      	str	r3, [r7, #12]
  /* Reset the TS Bits */
  tmpsmcr &= ~TIM_SMCR_TS;
 8001852:	68fb      	ldr	r3, [r7, #12]
 8001854:	f023 0370 	bic.w	r3, r3, #112	; 0x70
 8001858:	60fb      	str	r3, [r7, #12]
  /* Set the Input Trigger source and the slave mode*/
  tmpsmcr |= (InputTriggerSource | TIM_SLAVEMODE_EXTERNAL1);
 800185a:	683a      	ldr	r2, [r7, #0]
 800185c:	68fb      	ldr	r3, [r7, #12]
 800185e:	4313      	orrs	r3, r2
 8001860:	f043 0307 	orr.w	r3, r3, #7
 8001864:	60fb      	str	r3, [r7, #12]
  /* Write to TIMx SMCR */
  TIMx->SMCR = tmpsmcr;
 8001866:	687b      	ldr	r3, [r7, #4]
 8001868:	68fa      	ldr	r2, [r7, #12]
 800186a:	609a      	str	r2, [r3, #8]
}
 800186c:	bf00      	nop
 800186e:	3714      	adds	r7, #20
 8001870:	46bd      	mov	sp, r7
 8001872:	bc80      	pop	{r7}
 8001874:	4770      	bx	lr

08001876 <TIM_ETR_SetConfig>:
  *          This parameter must be a value between 0x00 and 0x0F
  * @retval None
  */
void TIM_ETR_SetConfig(TIM_TypeDef *TIMx, uint32_t TIM_ExtTRGPrescaler,
                       uint32_t TIM_ExtTRGPolarity, uint32_t ExtTRGFilter)
{
 8001876:	b480      	push	{r7}
 8001878:	b087      	sub	sp, #28
 800187a:	af00      	add	r7, sp, #0
 800187c:	60f8      	str	r0, [r7, #12]
 800187e:	60b9      	str	r1, [r7, #8]
 8001880:	607a      	str	r2, [r7, #4]
 8001882:	603b      	str	r3, [r7, #0]
  uint32_t tmpsmcr;

  tmpsmcr = TIMx->SMCR;
 8001884:	68fb      	ldr	r3, [r7, #12]
 8001886:	689b      	ldr	r3, [r3, #8]
 8001888:	617b      	str	r3, [r7, #20]

  /* Reset the ETR Bits */
  tmpsmcr &= ~(TIM_SMCR_ETF | TIM_SMCR_ETPS | TIM_SMCR_ECE | TIM_SMCR_ETP);
 800188a:	697b      	ldr	r3, [r7, #20]
 800188c:	f423 437f 	bic.w	r3, r3, #65280	; 0xff00
 8001890:	617b      	str	r3, [r7, #20]

  /* Set the Prescaler, the Filter value and the Polarity */
  tmpsmcr |= (uint32_t)(TIM_ExtTRGPrescaler | (TIM_ExtTRGPolarity | (ExtTRGFilter << 8U)));
 8001892:	683b      	ldr	r3, [r7, #0]
 8001894:	021a      	lsls	r2, r3, #8
 8001896:	687b      	ldr	r3, [r7, #4]
 8001898:	431a      	orrs	r2, r3
 800189a:	68bb      	ldr	r3, [r7, #8]
 800189c:	4313      	orrs	r3, r2
 800189e:	697a      	ldr	r2, [r7, #20]
 80018a0:	4313      	orrs	r3, r2
 80018a2:	617b      	str	r3, [r7, #20]

  /* Write to TIMx SMCR */
  TIMx->SMCR = tmpsmcr;
 80018a4:	68fb      	ldr	r3, [r7, #12]
 80018a6:	697a      	ldr	r2, [r7, #20]
 80018a8:	609a      	str	r2, [r3, #8]
}
 80018aa:	bf00      	nop
 80018ac:	371c      	adds	r7, #28
 80018ae:	46bd      	mov	sp, r7
 80018b0:	bc80      	pop	{r7}
 80018b2:	4770      	bx	lr

080018b4 <HAL_TIMEx_MasterConfigSynchronization>:
  *         mode.
  * @retval HAL status
  */
HAL_StatusTypeDef HAL_TIMEx_MasterConfigSynchronization(TIM_HandleTypeDef *htim,
                                                        const TIM_MasterConfigTypeDef *sMasterConfig)
{
 80018b4:	b480      	push	{r7}
 80018b6:	b085      	sub	sp, #20
 80018b8:	af00      	add	r7, sp, #0
 80018ba:	6078      	str	r0, [r7, #4]
 80018bc:	6039      	str	r1, [r7, #0]
  assert_param(IS_TIM_MASTER_INSTANCE(htim->Instance));
  assert_param(IS_TIM_TRGO_SOURCE(sMasterConfig->MasterOutputTrigger));
  assert_param(IS_TIM_MSM_STATE(sMasterConfig->MasterSlaveMode));

  /* Check input state */
  __HAL_LOCK(htim);
 80018be:	687b      	ldr	r3, [r7, #4]
 80018c0:	f893 303c 	ldrb.w	r3, [r3, #60]	; 0x3c
 80018c4:	2b01      	cmp	r3, #1
 80018c6:	d101      	bne.n	80018cc <HAL_TIMEx_MasterConfigSynchronization+0x18>
 80018c8:	2302      	movs	r3, #2
 80018ca:	e046      	b.n	800195a <HAL_TIMEx_MasterConfigSynchronization+0xa6>
 80018cc:	687b      	ldr	r3, [r7, #4]
 80018ce:	2201      	movs	r2, #1
 80018d0:	f883 203c 	strb.w	r2, [r3, #60]	; 0x3c

  /* Change the handler state */
  htim->State = HAL_TIM_STATE_BUSY;
 80018d4:	687b      	ldr	r3, [r7, #4]
 80018d6:	2202      	movs	r2, #2
 80018d8:	f883 203d 	strb.w	r2, [r3, #61]	; 0x3d

  /* Get the TIMx CR2 register value */
  tmpcr2 = htim->Instance->CR2;
 80018dc:	687b      	ldr	r3, [r7, #4]
 80018de:	681b      	ldr	r3, [r3, #0]
 80018e0:	685b      	ldr	r3, [r3, #4]
 80018e2:	60fb      	str	r3, [r7, #12]

  /* Get the TIMx SMCR register value */
  tmpsmcr = htim->Instance->SMCR;
 80018e4:	687b      	ldr	r3, [r7, #4]
 80018e6:	681b      	ldr	r3, [r3, #0]
 80018e8:	689b      	ldr	r3, [r3, #8]
 80018ea:	60bb      	str	r3, [r7, #8]

  /* Reset the MMS Bits */
  tmpcr2 &= ~TIM_CR2_MMS;
 80018ec:	68fb      	ldr	r3, [r7, #12]
 80018ee:	f023 0370 	bic.w	r3, r3, #112	; 0x70
 80018f2:	60fb      	str	r3, [r7, #12]
  /* Select the TRGO source */
  tmpcr2 |=  sMasterConfig->MasterOutputTrigger;
 80018f4:	683b      	ldr	r3, [r7, #0]
 80018f6:	681b      	ldr	r3, [r3, #0]
 80018f8:	68fa      	ldr	r2, [r7, #12]
 80018fa:	4313      	orrs	r3, r2
 80018fc:	60fb      	str	r3, [r7, #12]

  /* Update TIMx CR2 */
  htim->Instance->CR2 = tmpcr2;
 80018fe:	687b      	ldr	r3, [r7, #4]
 8001900:	681b      	ldr	r3, [r3, #0]
 8001902:	68fa      	ldr	r2, [r7, #12]
 8001904:	605a      	str	r2, [r3, #4]

  if (IS_TIM_SLAVE_INSTANCE(htim->Instance))
 8001906:	687b      	ldr	r3, [r7, #4]
 8001908:	681b      	ldr	r3, [r3, #0]
 800190a:	4a16      	ldr	r2, [pc, #88]	; (8001964 <HAL_TIMEx_MasterConfigSynchronization+0xb0>)
 800190c:	4293      	cmp	r3, r2
 800190e:	d00e      	beq.n	800192e <HAL_TIMEx_MasterConfigSynchronization+0x7a>
 8001910:	687b      	ldr	r3, [r7, #4]
 8001912:	681b      	ldr	r3, [r3, #0]
 8001914:	f1b3 4f80 	cmp.w	r3, #1073741824	; 0x40000000
 8001918:	d009      	beq.n	800192e <HAL_TIMEx_MasterConfigSynchronization+0x7a>
 800191a:	687b      	ldr	r3, [r7, #4]
 800191c:	681b      	ldr	r3, [r3, #0]
 800191e:	4a12      	ldr	r2, [pc, #72]	; (8001968 <HAL_TIMEx_MasterConfigSynchronization+0xb4>)
 8001920:	4293      	cmp	r3, r2
 8001922:	d004      	beq.n	800192e <HAL_TIMEx_MasterConfigSynchronization+0x7a>
 8001924:	687b      	ldr	r3, [r7, #4]
 8001926:	681b      	ldr	r3, [r3, #0]
 8001928:	4a10      	ldr	r2, [pc, #64]	; (800196c <HAL_TIMEx_MasterConfigSynchronization+0xb8>)
 800192a:	4293      	cmp	r3, r2
 800192c:	d10c      	bne.n	8001948 <HAL_TIMEx_MasterConfigSynchronization+0x94>
  {
    /* Reset the MSM Bit */
    tmpsmcr &= ~TIM_SMCR_MSM;
 800192e:	68bb      	ldr	r3, [r7, #8]
 8001930:	f023 0380 	bic.w	r3, r3, #128	; 0x80
 8001934:	60bb      	str	r3, [r7, #8]
    /* Set master mode */
    tmpsmcr |= sMasterConfig->MasterSlaveMode;
 8001936:	683b      	ldr	r3, [r7, #0]
 8001938:	685b      	ldr	r3, [r3, #4]
 800193a:	68ba      	ldr	r2, [r7, #8]
 800193c:	4313      	orrs	r3, r2
 800193e:	60bb      	str	r3, [r7, #8]

    /* Update TIMx SMCR */
    htim->Instance->SMCR = tmpsmcr;
 8001940:	687b      	ldr	r3, [r7, #4]
 8001942:	681b      	ldr	r3, [r3, #0]
 8001944:	68ba      	ldr	r2, [r7, #8]
 8001946:	609a      	str	r2, [r3, #8]
  }

  /* Change the htim state */
  htim->State = HAL_TIM_STATE_READY;
 8001948:	687b      	ldr	r3, [r7, #4]
 800194a:	2201      	movs	r2, #1
 800194c:	f883 203d 	strb.w	r2, [r3, #61]	; 0x3d

  __HAL_UNLOCK(htim);
 8001950:	687b      	ldr	r3, [r7, #4]
 8001952:	2200      	movs	r2, #0
 8001954:	f883 203c 	strb.w	r2, [r3, #60]	; 0x3c

  return HAL_OK;
 8001958:	2300      	movs	r3, #0
}
 800195a:	4618      	mov	r0, r3
 800195c:	3714      	adds	r7, #20
 800195e:	46bd      	mov	sp, r7
 8001960:	bc80      	pop	{r7}
 8001962:	4770      	bx	lr
 8001964:	40012c00 	.word	0x40012c00
 8001968:	40000400 	.word	0x40000400
 800196c:	40000800 	.word	0x40000800

08001970 <__libc_init_array>:
 8001970:	b570      	push	{r4, r5, r6, lr}
 8001972:	2600      	movs	r6, #0
 8001974:	4d0c      	ldr	r5, [pc, #48]	; (80019a8 <__libc_init_array+0x38>)
 8001976:	4c0d      	ldr	r4, [pc, #52]	; (80019ac <__libc_init_array+0x3c>)
 8001978:	1b64      	subs	r4, r4, r5
 800197a:	10a4      	asrs	r4, r4, #2
 800197c:	42a6      	cmp	r6, r4
 800197e:	d109      	bne.n	8001994 <__libc_init_array+0x24>
 8001980:	f000 f822 	bl	80019c8 <_init>
 8001984:	2600      	movs	r6, #0
 8001986:	4d0a      	ldr	r5, [pc, #40]	; (80019b0 <__libc_init_array+0x40>)
 8001988:	4c0a      	ldr	r4, [pc, #40]	; (80019b4 <__libc_init_array+0x44>)
 800198a:	1b64      	subs	r4, r4, r5
 800198c:	10a4      	asrs	r4, r4, #2
 800198e:	42a6      	cmp	r6, r4
 8001990:	d105      	bne.n	800199e <__libc_init_array+0x2e>
 8001992:	bd70      	pop	{r4, r5, r6, pc}
 8001994:	f855 3b04 	ldr.w	r3, [r5], #4
 8001998:	4798      	blx	r3
 800199a:	3601      	adds	r6, #1
 800199c:	e7ee      	b.n	800197c <__libc_init_array+0xc>
 800199e:	f855 3b04 	ldr.w	r3, [r5], #4
 80019a2:	4798      	blx	r3
 80019a4:	3601      	adds	r6, #1
 80019a6:	e7f2      	b.n	800198e <__libc_init_array+0x1e>
 80019a8:	08001a04 	.word	0x08001a04
 80019ac:	08001a04 	.word	0x08001a04
 80019b0:	08001a04 	.word	0x08001a04
 80019b4:	08001a08 	.word	0x08001a08

080019b8 <memset>:
 80019b8:	4603      	mov	r3, r0
 80019ba:	4402      	add	r2, r0
 80019bc:	4293      	cmp	r3, r2
 80019be:	d100      	bne.n	80019c2 <memset+0xa>
 80019c0:	4770      	bx	lr
 80019c2:	f803 1b01 	strb.w	r1, [r3], #1
 80019c6:	e7f9      	b.n	80019bc <memset+0x4>

080019c8 <_init>:
 80019c8:	b5f8      	push	{r3, r4, r5, r6, r7, lr}
 80019ca:	bf00      	nop
 80019cc:	bcf8      	pop	{r3, r4, r5, r6, r7}
 80019ce:	bc08      	pop	{r3}
 80019d0:	469e      	mov	lr, r3
 80019d2:	4770      	bx	lr

080019d4 <_fini>:
 80019d4:	b5f8      	push	{r3, r4, r5, r6, r7, lr}
 80019d6:	bf00      	nop
 80019d8:	bcf8      	pop	{r3, r4, r5, r6, r7}
 80019da:	bc08      	pop	{r3}
 80019dc:	469e      	mov	lr, r3
 80019de:	4770      	bx	lr
